CCS PCH C Compiler, Version 5.104, 57077               03-3-26 16:24

               Filename:   C:\Users\rice_\Chiba Institute of Technology\6ҚҶӢ@ - ғhғLғ…ғҒғ“ғg\TMP_MIS\02_Software\SON_SW_044_TMP_PIC\son_tmp_main.lst

               ROM used:   15600 bytes (12%)
                           Largest free fragment is 65520
               RAM used:   349 (10%) at main() level
                           580 (16%) worst case
               Stack used: 7 locations (6 in main + 1 for interrupts)
               Stack size: 31

*
00000:  NOP   
00002:  GOTO   3822
*
00008:  MOVWF  04
0000A:  MOVFF  FD8,05
0000E:  MOVFF  FE0,06
00012:  MOVLB  0
00014:  MOVFF  FE9,0C
00018:  MOVFF  FEA,07
0001C:  MOVFF  FE1,08
00020:  MOVFF  FE2,09
00024:  MOVFF  FD9,0A
00028:  MOVFF  FDA,0B
0002C:  MOVFF  FF3,12
00030:  MOVFF  FF4,13
00034:  MOVFF  FFA,14
00038:  MOVFF  FF5,15
0003C:  MOVFF  FF6,16
00040:  MOVFF  FF7,17
00044:  MOVFF  FF8,18
00048:  MOVFF  FFB,19
0004C:  MOVFF  00,0E
00050:  MOVFF  01,0F
00054:  MOVFF  02,10
00058:  MOVFF  03,11
0005C:  BTFSS  F9D.0
0005E:  GOTO   0068
00062:  BTFSC  F9E.0
00064:  GOTO   00BE
00068:  MOVFF  0E,00
0006C:  MOVFF  0F,01
00070:  MOVFF  10,02
00074:  MOVFF  11,03
00078:  MOVFF  0C,FE9
0007C:  MOVFF  07,FEA
00080:  BSF    07.7
00082:  MOVFF  08,FE1
00086:  MOVFF  09,FE2
0008A:  MOVFF  0A,FD9
0008E:  MOVFF  0B,FDA
00092:  MOVFF  12,FF3
00096:  MOVFF  13,FF4
0009A:  MOVFF  14,FFA
0009E:  MOVFF  15,FF5
000A2:  MOVFF  16,FF6
000A6:  MOVFF  17,FF7
000AA:  MOVFF  18,FF8
000AE:  MOVFF  19,FFB
000B2:  MOVF   04,W
000B4:  MOVFF  06,FE0
000B8:  MOVFF  05,FD8
000BC:  RETFIE 0
.................... #include "cigs/system/son_tmp_main.h"  // гғҳгғғгғҖгғјгғ•гӮЎгӮӨгғ«гҒӢгӮүиҮӘеӢ•зҡ„гҒ«гӮӨгғігӮҜгғ«гғјгғүгҒ•гӮҢгӮӢгҒҹгӮҒдёҚиҰҒ
.................... #ifndef son_tmp_MAIN_H
.................... #define son_tmp_MAIN_H
.................... 
.................... #opt 0 // 0 = no optimization
.................... 
.................... //==============================================================================
.................... // CCS C жңҖйҒ©еҢ–ж§ӢйҖ : гғҳгғғгғҖгғјеҲҶж•Ј + .cгғ•гӮЎгӮӨгғ«зөұеҗҲ
.................... //==============================================================================
.................... 
.................... // гғ¬гғҷгғ«1: гӮ·гӮ№гғҶгғ иЁӯе®ҡ
.................... #include "son_tmp_config.h"
.................... #ifndef son_tmp_CONFIG_H
.................... #define son_tmp_CONFIG_H
.................... 
.................... #define SELF_DEVICE_ID CIGS_PIC
.................... 
.................... #include <18F67J94.h>
.................... //////////// Standard Header file for the PIC18F67J94 device ////////////////
.................... ///////////////////////////////////////////////////////////////////////////
.................... ////        (C) Copyright 1996, 2020 Custom Computer Services          ////
.................... //// This source code may only be used by licensed users of the CCS C  ////
.................... //// compiler.  This source code may only be distributed to other      ////
.................... //// licensed users of the CCS C compiler.  No other use, reproduction ////
.................... //// or distribution is permitted without written permission.          ////
.................... //// Derivative programs created using this software in object code    ////
.................... //// form are not restricted in any way.                               ////
.................... ///////////////////////////////////////////////////////////////////////////
.................... #device PIC18F67J94
*
000F8:  DATA 54,69
000FA:  DATA 6D,65
000FC:  DATA 72,20
000FE:  DATA 49,6E
00100:  DATA 69,74
00102:  DATA 69,61
00104:  DATA 6C,69
00106:  DATA 7A,65
00108:  DATA 20,28
0010A:  DATA 31,36
0010C:  DATA 4D,48
0010E:  DATA 7A,20
00110:  DATA 4D,61
00112:  DATA 69,6E
00114:  DATA 20,43
00116:  DATA 6C,6F
00118:  DATA 63,6B
0011A:  DATA 20,42
0011C:  DATA 61,73
0011E:  DATA 65,29
00120:  DATA 0D,0A
00122:  DATA 00,00
00124:  DATA 09,43
00126:  DATA 6F,6D
00128:  DATA 70,6C
0012A:  DATA 65,74
0012C:  DATA 65,0D
0012E:  DATA 0A,00
00130:  DATA 55,41
00132:  DATA 52,54
00134:  DATA 20,49
00136:  DATA 6E,69
00138:  DATA 74,69
0013A:  DATA 61,6C
0013C:  DATA 69,7A
0013E:  DATA 65,0D
00140:  DATA 0A,00
00142:  DATA 09,43
00144:  DATA 6F,6D
00146:  DATA 70,6C
00148:  DATA 65,74
0014A:  DATA 65,0D
0014C:  DATA 0A,00
0014E:  DATA 45,6E
00150:  DATA 71,75
00152:  DATA 65,75
00154:  DATA 65,20
00156:  DATA 46,6C
00158:  DATA 61,73
0015A:  DATA 68,20
0015C:  DATA 4F,70
0015E:  DATA 65,72
00160:  DATA 61,74
00162:  DATA 69,6F
00164:  DATA 6E,0D
00166:  DATA 0A,00
00168:  DATA 46,6C
0016A:  DATA 61,73
0016C:  DATA 68,20
0016E:  DATA 71,75
00170:  DATA 65,75
00172:  DATA 65,20
00174:  DATA 69,73
00176:  DATA 20,66
00178:  DATA 75,6C
0017A:  DATA 6C,21
0017C:  DATA 21,21
0017E:  DATA 0D,0A
00180:  DATA 00,00
00182:  DATA 46,6C
00184:  DATA 61,73
00186:  DATA 68,20
00188:  DATA 71,75
0018A:  DATA 65,75
0018C:  DATA 65,20
0018E:  DATA 69,73
00190:  DATA 20,65
00192:  DATA 6D,70
00194:  DATA 74,79
00196:  DATA 0D,0A
00198:  DATA 00,00
0019A:  DATA 0D,0A
0019C:  DATA 53,74
0019E:  DATA 61,72
001A0:  DATA 74,20
001A2:  DATA 6D,61
001A4:  DATA 6B,65
001A6:  DATA 5F,72
001A8:  DATA 65,63
001AA:  DATA 65,69
001AC:  DATA 76,65
001AE:  DATA 5F,63
001B0:  DATA 6F,6D
001B2:  DATA 6D,61
001B4:  DATA 6E,64
001B6:  DATA 0D,0A
001B8:  DATA 00,00
001BA:  DATA 09,5B
001BC:  DATA 42,4F
001BE:  DATA 53,53
001C0:  DATA 5D,20
001C2:  DATA 3E,3E
001C4:  DATA 3E,20
001C6:  DATA 00,00
001C8:  DATA 45,6E
001CA:  DATA 64,20
001CC:  DATA 6D,61
001CE:  DATA 6B,65
001D0:  DATA 5F,72
001D2:  DATA 65,63
001D4:  DATA 69,76
001D6:  DATA 65,5F
001D8:  DATA 63,6F
001DA:  DATA 6D,6D
001DC:  DATA 61,6E
001DE:  DATA 64,0D
001E0:  DATA 0A,0D
001E2:  DATA 0A,00
001E4:  DATA 73,69
001E6:  DATA 67,6E
001E8:  DATA 61,6C
001EA:  DATA 20,65
001EC:  DATA 6E,64
001EE:  DATA 20,77
001F0:  DATA 69,74
001F2:  DATA 68,20
001F4:  DATA 53,46
001F6:  DATA 44,0D
001F8:  DATA 0A,00
001FA:  DATA 64,6F
001FC:  DATA 6E,27
001FE:  DATA 74,20
00200:  DATA 66,69
00202:  DATA 6E,64
00204:  DATA 20,53
00206:  DATA 46,44
00208:  DATA 0D,0A
0020A:  DATA 00,00
0020C:  DATA 09,2D
0020E:  DATA 3E,20
00210:  DATA 49,6E
00212:  DATA 76,61
00214:  DATA 6C,69
00216:  DATA 64,20
00218:  DATA 46,72
0021A:  DATA 61,6D
0021C:  DATA 65,20
0021E:  DATA 49,44
00220:  DATA 20,72
00222:  DATA 65,63
00224:  DATA 65,69
00226:  DATA 76,65
00228:  DATA 64,3A
0022A:  DATA 20,25
0022C:  DATA 58,0D
0022E:  DATA 0A,00
00230:  DATA 09,2D
00232:  DATA 3E,20
00234:  DATA 43,52
00236:  DATA 43,20
00238:  DATA 65,72
0023A:  DATA 72,6F
0023C:  DATA 72,21
0023E:  DATA 0D,0A
00240:  DATA 00,00
00242:  DATA 09,09
00244:  DATA 2D,3E
00246:  DATA 20,72
00248:  DATA 65,63
0024A:  DATA 65,69
0024C:  DATA 76,65
0024E:  DATA 64,20
00250:  DATA 43,52
00252:  DATA 43,3A
00254:  DATA 20,25
00256:  DATA 58,0D
00258:  DATA 0A,00
0025A:  DATA 09,09
0025C:  DATA 20,20
0025E:  DATA 20,63
00260:  DATA 6F,6C
00262:  DATA 6C,65
00264:  DATA 63,74
00266:  DATA 20,43
00268:  DATA 52,43
0026A:  DATA 20,3A
0026C:  DATA 20,25
0026E:  DATA 58,0D
00270:  DATA 0A,00
00272:  DATA 09,2D
00274:  DATA 3E,20
00276:  DATA 49,6E
00278:  DATA 76,61
0027A:  DATA 6C,69
0027C:  DATA 64,20
0027E:  DATA 64,65
00280:  DATA 76,69
00282:  DATA 63,65
00284:  DATA 20,49
00286:  DATA 44,20
00288:  DATA 72,65
0028A:  DATA 63,65
0028C:  DATA 69,76
0028E:  DATA 65,64
00290:  DATA 0D,0A
00292:  DATA 00,00
00294:  DATA 09,09
00296:  DATA 2D,3E
00298:  DATA 20,72
0029A:  DATA 65,63
0029C:  DATA 65,69
0029E:  DATA 76,65
002A0:  DATA 64,3A
002A2:  DATA 20,20
002A4:  DATA 20,20
002A6:  DATA 20,25
002A8:  DATA 58,0D
002AA:  DATA 0A,00
002AC:  DATA 09,09
002AE:  DATA 20,20
002B0:  DATA 20,4D
002B2:  DATA 79,20
002B4:  DATA 64,65
002B6:  DATA 76,69
002B8:  DATA 63,65
002BA:  DATA 20,49
002BC:  DATA 44,3A
002BE:  DATA 20,25
002C0:  DATA 58,0D
002C2:  DATA 0A,00
002C4:  DATA 09,5B
002C6:  DATA 42,4F
002C8:  DATA 53,53
002CA:  DATA 5D,20
002CC:  DATA 3C,3C
002CE:  DATA 3C,20
002D0:  DATA 00,00
002D2:  DATA 53,74
002D4:  DATA 61,72
002D6:  DATA 74,20
002D8:  DATA 53,4D
002DA:  DATA 46,20
002DC:  DATA 75,73
002DE:  DATA 69,6E
002E0:  DATA 67,20
002E2:  DATA 72,65
002E4:  DATA 71,65
002E6:  DATA 73,74
002E8:  DATA 20,73
002EA:  DATA 65,61
002EC:  DATA 71,75
002EE:  DATA 65,6E
002F0:  DATA 63,65
002F2:  DATA 0D,0A
002F4:  DATA 00,00
002F6:  DATA 45,72
002F8:  DATA 72,6F
002FA:  DATA 72,21
002FC:  DATA 20,52
002FE:  DATA 65,63
00300:  DATA 65,69
00302:  DATA 76,69
00304:  DATA 6E,67
00306:  DATA 20,63
00308:  DATA 6F,6D
0030A:  DATA 6D,61
0030C:  DATA 6E,64
0030E:  DATA 20,69
00310:  DATA 6E,63
00312:  DATA 6F,6E
00314:  DATA 73,69
00316:  DATA 73,74
00318:  DATA 65,6E
0031A:  DATA 74,20
0031C:  DATA 77,69
0031E:  DATA 74,68
00320:  DATA 20,74
00322:  DATA 68,65
00324:  DATA 20,64
00326:  DATA 65,73
00328:  DATA 69,67
0032A:  DATA 6E,0D
0032C:  DATA 0A,00
0032E:  DATA 53,4D
00330:  DATA 46,20
00332:  DATA 75,73
00334:  DATA 65,20
00336:  DATA 72,65
00338:  DATA 71,75
0033A:  DATA 65,73
0033C:  DATA 74,20
0033E:  DATA 61,6C
00340:  DATA 6C,6F
00342:  DATA 77,65
00344:  DATA 64,0D
00346:  DATA 0A,00
00348:  DATA 53,4D
0034A:  DATA 46,20
0034C:  DATA 75,73
0034E:  DATA 65,20
00350:  DATA 72,65
00352:  DATA 71,75
00354:  DATA 65,73
00356:  DATA 74,20
00358:  DATA 64,65
0035A:  DATA 6E,79
0035C:  DATA 65,64
0035E:  DATA 0D,0A
00360:  DATA 00,00
00362:  DATA 52,65
00364:  DATA 74,72
00366:  DATA 79,20
00368:  DATA 72,65
0036A:  DATA 71,75
0036C:  DATA 65,73
0036E:  DATA 74,20
00370:  DATA 74,6F
00372:  DATA 20,42
00374:  DATA 4F,53
00376:  DATA 53,20
00378:  DATA 50,49
0037A:  DATA 43,0D
0037C:  DATA 0A,00
0037E:  DATA 45,72
00380:  DATA 72,6F
00382:  DATA 72,21
00384:  DATA 20,52
00386:  DATA 65,63
00388:  DATA 65,69
0038A:  DATA 76,69
0038C:  DATA 6E,67
0038E:  DATA 20,63
00390:  DATA 6F,6D
00392:  DATA 6D,61
00394:  DATA 6E,64
00396:  DATA 20,69
00398:  DATA 6E,63
0039A:  DATA 6F,6E
0039C:  DATA 73,69
0039E:  DATA 73,74
003A0:  DATA 65,6E
003A2:  DATA 74,20
003A4:  DATA 77,69
003A6:  DATA 74,68
003A8:  DATA 20,74
003AA:  DATA 68,65
003AC:  DATA 20,64
003AE:  DATA 65,73
003B0:  DATA 69,67
003B2:  DATA 6E,0D
003B4:  DATA 0A,00
003B6:  DATA 45,6E
003B8:  DATA 64,20
003BA:  DATA 53,4D
003BC:  DATA 46,20
003BE:  DATA 75,73
003C0:  DATA 69,6E
003C2:  DATA 67,20
003C4:  DATA 72,65
003C6:  DATA 71,65
003C8:  DATA 73,74
003CA:  DATA 20,73
003CC:  DATA 65,61
003CE:  DATA 71,75
003D0:  DATA 65,6E
003D2:  DATA 63,65
003D4:  DATA 0D,0A
003D6:  DATA 00,00
003D8:  DATA 49,4F
003DA:  DATA 20,49
003DC:  DATA 6E,69
003DE:  DATA 74,69
003E0:  DATA 61,6C
003E2:  DATA 69,7A
003E4:  DATA 65,0D
003E6:  DATA 0A,00
003E8:  DATA 09,43
003EA:  DATA 6F,6D
003EC:  DATA 70,6C
003EE:  DATA 65,74
003F0:  DATA 65,0D
003F2:  DATA 0A,00
003F4:  DATA 53,74
003F6:  DATA 61,72
003F8:  DATA 74,20
003FA:  DATA 4D,65
003FC:  DATA 61,73
003FE:  DATA 75,72
00400:  DATA 65,6D
00402:  DATA 65,6E
00404:  DATA 74,20
00406:  DATA 28,4D
00408:  DATA 6F,64
0040A:  DATA 65,3A
0040C:  DATA 25,75
0040E:  DATA 2C,20
00410:  DATA 43,68
00412:  DATA 3A,25
00414:  DATA 75,29
00416:  DATA 0D,0A
00418:  DATA 00,00
0041A:  DATA 45,6E
0041C:  DATA 64,20
0041E:  DATA 43,49
00420:  DATA 47,53
00422:  DATA 20,4D
00424:  DATA 65,61
00426:  DATA 73,75
00428:  DATA 72,65
0042A:  DATA 6D,65
0042C:  DATA 6E,74
0042E:  DATA 20,53
00430:  DATA 65,71
00432:  DATA 75,65
00434:  DATA 6E,63
00436:  DATA 65,0D
00438:  DATA 0A,00
0043A:  DATA 54,65
0043C:  DATA 6D,70
0043E:  DATA 20,49
00440:  DATA 4F,20
00442:  DATA 49,6E
00444:  DATA 69,74
00446:  DATA 69,61
00448:  DATA 6C,69
0044A:  DATA 7A,65
0044C:  DATA 0D,0A
0044E:  DATA 00,00
00450:  DATA 09,43
00452:  DATA 6F,6D
00454:  DATA 70,6C
00456:  DATA 65,74
00458:  DATA 65,0D
0045A:  DATA 0A,00
0045C:  DATA 53,74
0045E:  DATA 61,72
00460:  DATA 74,20
00462:  DATA 54,65
00464:  DATA 6D,70
00466:  DATA 20,4D
00468:  DATA 65,61
0046A:  DATA 73,75
0046C:  DATA 72,65
0046E:  DATA 6D,65
00470:  DATA 6E,74
00472:  DATA 20,28
00474:  DATA 50,61
00476:  DATA 63,6B
00478:  DATA 65,74
0047A:  DATA 73,20
0047C:  DATA 25,75
0047E:  DATA 20,74
00480:  DATA 6F,20
00482:  DATA 25,75
00484:  DATA 29,0D
00486:  DATA 0A,00
00488:  DATA 45,6E
0048A:  DATA 64,20
0048C:  DATA 54,65
0048E:  DATA 6D,70
00490:  DATA 20,4D
00492:  DATA 65,61
00494:  DATA 73,75
00496:  DATA 72,65
00498:  DATA 6D,65
0049A:  DATA 6E,74
0049C:  DATA 0D,0A
0049E:  DATA 00,00
004A0:  DATA 09,5B
004A2:  DATA 50,49
004A4:  DATA 43,4C
004A6:  DATA 4F,47
004A8:  DATA 5D,20
004AA:  DATA 3A,20
004AC:  DATA 00,00
004AE:  DATA 09,5B
004B0:  DATA 53,4D
004B2:  DATA 46,5D
004B4:  DATA 20,50
004B6:  DATA 72,65
004B8:  DATA 70,61
004BA:  DATA 72,65
004BC:  DATA 3A,20
004BE:  DATA 41,64
004C0:  DATA 64,72
004C2:  DATA 3D,30
004C4:  DATA 78,25
004C6:  DATA 30,38
004C8:  DATA 6C,58
004CA:  DATA 2C,20
004CC:  DATA 53,69
004CE:  DATA 7A,65
004D0:  DATA 3D,25
004D2:  DATA 6C,75
004D4:  DATA 20,62
004D6:  DATA 79,74
004D8:  DATA 65,73
004DA:  DATA 0D,0A
004DC:  DATA 00,00
004DE:  DATA 09,5B
004E0:  DATA 53,4D
004E2:  DATA 46,5D
004E4:  DATA 20,50
004E6:  DATA 72,65
004E8:  DATA 70,61
004EA:  DATA 72,65
004EC:  DATA 3A,20
004EE:  DATA 4E,6F
004F0:  DATA 20,64
004F2:  DATA 61,74
004F4:  DATA 61,20
004F6:  DATA 74,6F
004F8:  DATA 20,63
004FA:  DATA 6F,70
004FC:  DATA 79,2E
004FE:  DATA 0D,0A
00500:  DATA 00,00
00502:  DATA 09,5B
00504:  DATA 53,4D
00506:  DATA 46,5D
00508:  DATA 20,43
0050A:  DATA 6F,70
0050C:  DATA 79,69
0050E:  DATA 6E,67
00510:  DATA 20,64
00512:  DATA 61,74
00514:  DATA 61,20
00516:  DATA 74,6F
00518:  DATA 20,43
0051A:  DATA 50,4C
0051C:  DATA 44,2E
0051E:  DATA 2E,2E
00520:  DATA 0D,0A
00522:  DATA 00,00
00524:  DATA 09,5B
00526:  DATA 53,4D
00528:  DATA 46,5D
0052A:  DATA 20,43
0052C:  DATA 6F,70
0052E:  DATA 79,20
00530:  DATA 43,6F
00532:  DATA 6D,70
00534:  DATA 6C,65
00536:  DATA 74,65
00538:  DATA 2E,0D
0053A:  DATA 0A,00
0053C:  DATA 09,5B
0053E:  DATA 53,4D
00540:  DATA 46,5D
00542:  DATA 20,50
00544:  DATA 65,72
00546:  DATA 6D,69
00548:  DATA 74,3A
0054A:  DATA 20,43
0054C:  DATA 6F,75
0054E:  DATA 6E,74
00550:  DATA 65,72
00552:  DATA 73,20
00554:  DATA 75,70
00556:  DATA 64,61
00558:  DATA 74,65
0055A:  DATA 64,20
0055C:  DATA 61,6E
0055E:  DATA 64,20
00560:  DATA 73,61
00562:  DATA 76,65
00564:  DATA 64,2E
00566:  DATA 0D,0A
00568:  DATA 00,00
0056A:  DATA 4D,49
0056C:  DATA 53,53
0056E:  DATA 49,4F
00570:  DATA 4E,20
00572:  DATA 46,4C
00574:  DATA 41,53
00576:  DATA 48,20
00578:  DATA 49,6E
0057A:  DATA 69,74
0057C:  DATA 69,61
0057E:  DATA 6C,69
00580:  DATA 7A,65
00582:  DATA 0D,0A
00584:  DATA 00,00
00586:  DATA 09,5B
00588:  DATA 4D,49
0058A:  DATA 53,20
0058C:  DATA 46,4D
0058E:  DATA 5D,20
00590:  DATA 43,6F
00592:  DATA 6E,6E
00594:  DATA 65,63
00596:  DATA 74,65
00598:  DATA 64,0D
0059A:  DATA 0A,00
0059C:  DATA 09,5B
0059E:  DATA 4D,49
005A0:  DATA 53,20
005A2:  DATA 46,4D
005A4:  DATA 5D,20
005A6:  DATA 4E,6F
005A8:  DATA 74,20
005AA:  DATA 43,6F
005AC:  DATA 6E,6E
005AE:  DATA 65,63
005B0:  DATA 74,65
005B2:  DATA 64,0D
005B4:  DATA 0A,00
005B6:  DATA 09,5B
005B8:  DATA 53,4D
005BA:  DATA 46,5D
005BC:  DATA 20,43
005BE:  DATA 6F,6E
005C0:  DATA 6E,65
005C2:  DATA 63,74
005C4:  DATA 65,64
005C6:  DATA 0D,0A
005C8:  DATA 00,00
005CA:  DATA 09,5B
005CC:  DATA 53,4D
005CE:  DATA 46,5D
005D0:  DATA 20,4E
005D2:  DATA 6F,74
005D4:  DATA 20,43
005D6:  DATA 6F,6E
005D8:  DATA 6E,65
005DA:  DATA 63,74
005DC:  DATA 65,64
005DE:  DATA 0D,0A
005E0:  DATA 00,00
005E2:  DATA 09,44
005E4:  DATA 61,74
005E6:  DATA 61,20
005E8:  DATA 74,61
005EA:  DATA 62,6C
005EC:  DATA 65,20
005EE:  DATA 6C,6F
005F0:  DATA 61,64
005F2:  DATA 65,64
005F4:  DATA 20,66
005F6:  DATA 72,6F
005F8:  DATA 6D,20
005FA:  DATA 46,6C
005FC:  DATA 61,73
005FE:  DATA 68,2E
00600:  DATA 0D,0A
00602:  DATA 00,00
00604:  DATA 09,44
00606:  DATA 61,74
00608:  DATA 61,20
0060A:  DATA 74,61
0060C:  DATA 62,6C
0060E:  DATA 65,20
00610:  DATA 69,73
00612:  DATA 20,65
00614:  DATA 6D,70
00616:  DATA 74,79
00618:  DATA 2E,20
0061A:  DATA 49,6E
0061C:  DATA 69,74
0061E:  DATA 69,61
00620:  DATA 6C,69
00622:  DATA 7A,65
00624:  DATA 64,20
00626:  DATA 74,6F
00628:  DATA 20,7A
0062A:  DATA 65,72
0062C:  DATA 6F,2E
0062E:  DATA 0D,0A
00630:  DATA 00,00
00632:  DATA 09,43
00634:  DATA 6F,6D
00636:  DATA 70,6C
00638:  DATA 65,74
0063A:  DATA 65,0D
0063C:  DATA 0A,00
0063E:  DATA 2D,2D
00640:  DATA 2D,20
00642:  DATA 46,6C
00644:  DATA 61,73
00646:  DATA 68,20
00648:  DATA 53,74
0064A:  DATA 61,74
0064C:  DATA 75,73
0064E:  DATA 20,2D
00650:  DATA 2D,2D
00652:  DATA 0D,0A
00654:  DATA 00,00
00656:  DATA 50,49
00658:  DATA 43,4C
0065A:  DATA 4F,47
0065C:  DATA 20,20
0065E:  DATA 55,73
00660:  DATA 65,64
00662:  DATA 3A,20
00664:  DATA 25,6C
00666:  DATA 75,2C
00668:  DATA 20,55
0066A:  DATA 6E,63
0066C:  DATA 6F,70
0066E:  DATA 69,65
00670:  DATA 64,3A
00672:  DATA 20,25
00674:  DATA 6C,75
00676:  DATA 0D,0A
00678:  DATA 00,00
0067A:  DATA 45,4E
0067C:  DATA 56,49
0067E:  DATA 52,4F
00680:  DATA 20,20
00682:  DATA 55,73
00684:  DATA 65,64
00686:  DATA 3A,20
00688:  DATA 25,6C
0068A:  DATA 75,2C
0068C:  DATA 20,55
0068E:  DATA 6E,63
00690:  DATA 6F,70
00692:  DATA 69,65
00694:  DATA 64,3A
00696:  DATA 20,25
00698:  DATA 6C,75
0069A:  DATA 0D,0A
0069C:  DATA 00,00
0069E:  DATA 49,56
006A0:  DATA 20,44
006A2:  DATA 41,54
006A4:  DATA 41,20
006A6:  DATA 55,73
006A8:  DATA 65,64
006AA:  DATA 3A,20
006AC:  DATA 25,6C
006AE:  DATA 75,2C
006B0:  DATA 20,55
006B2:  DATA 6E,63
006B4:  DATA 6F,70
006B6:  DATA 69,65
006B8:  DATA 64,3A
006BA:  DATA 20,25
006BC:  DATA 6C,75
006BE:  DATA 0D,0A
006C0:  DATA 00,00
006C2:  DATA 2D,2D
006C4:  DATA 2D,2D
006C6:  DATA 2D,2D
006C8:  DATA 2D,2D
006CA:  DATA 2D,2D
006CC:  DATA 2D,2D
006CE:  DATA 2D,2D
006D0:  DATA 2D,2D
006D2:  DATA 2D,2D
006D4:  DATA 2D,2D
006D6:  DATA 0D,0A
006D8:  DATA 00,00
006DA:  DATA 43,49
006DC:  DATA 47,53
006DE:  DATA 20,53
006E0:  DATA 79,73
006E2:  DATA 74,65
006E4:  DATA 6D,20
006E6:  DATA 49,6E
006E8:  DATA 69,74
006EA:  DATA 69,61
006EC:  DATA 6C,69
006EE:  DATA 7A,65
006F0:  DATA 20,53
006F2:  DATA 74,61
006F4:  DATA 72,74
006F6:  DATA 0D,0A
006F8:  DATA 00,00
006FA:  DATA 43,49
006FC:  DATA 47,53
006FE:  DATA 20,53
00700:  DATA 79,73
00702:  DATA 74,65
00704:  DATA 6D,20
00706:  DATA 49,6E
00708:  DATA 69,74
0070A:  DATA 69,61
0070C:  DATA 6C,69
0070E:  DATA 7A,65
00710:  DATA 20,43
00712:  DATA 6F,6D
00714:  DATA 70,6C
00716:  DATA 65,74
00718:  DATA 65,0D
0071A:  DATA 0A,00
0071C:  DATA 52,65
0071E:  DATA 63,65
00720:  DATA 69,76
00722:  DATA 65,64
00724:  DATA 20,43
00726:  DATA 6F,6D
00728:  DATA 6D,61
0072A:  DATA 6E,64
0072C:  DATA 3A,20
0072E:  DATA 30,78
00730:  DATA 25,30
00732:  DATA 32,58
00734:  DATA 0D,0A
00736:  DATA 00,00
00738:  DATA 55,6E
0073A:  DATA 6B,6E
0073C:  DATA 6F,77
0073E:  DATA 6E,20
00740:  DATA 43,6F
00742:  DATA 6D,6D
00744:  DATA 61,6E
00746:  DATA 64,3A
00748:  DATA 20,30
0074A:  DATA 78,25
0074C:  DATA 30,32
0074E:  DATA 58,0D
00750:  DATA 0A,00
00752:  DATA 2D,2D
00754:  DATA 2D,20
00756:  DATA 4D,69
00758:  DATA 73,73
0075A:  DATA 69,6F
0075C:  DATA 6E,20
0075E:  DATA 53,65
00760:  DATA 71,75
00762:  DATA 65,6E
00764:  DATA 63,65
00766:  DATA 20,53
00768:  DATA 74,61
0076A:  DATA 72,74
0076C:  DATA 20,2D
0076E:  DATA 2D,2D
00770:  DATA 0D,0A
00772:  DATA 00,00
00774:  DATA 45,78
00776:  DATA 65,63
00778:  DATA 75,74
0077A:  DATA 69,6E
0077C:  DATA 67,20
0077E:  DATA 43,68
00780:  DATA 61,6E
00782:  DATA 6E,65
00784:  DATA 6C,3A
00786:  DATA 20,25
00788:  DATA 75,0D
0078A:  DATA 0A,00
0078C:  DATA 2D,2D
0078E:  DATA 2D,20
00790:  DATA 4D,69
00792:  DATA 73,73
00794:  DATA 69,6F
00796:  DATA 6E,20
00798:  DATA 53,65
0079A:  DATA 71,75
0079C:  DATA 65,6E
0079E:  DATA 63,65
007A0:  DATA 20,43
007A2:  DATA 6F,6D
007A4:  DATA 70,6C
007A6:  DATA 65,74
007A8:  DATA 65,20
007AA:  DATA 2D,2D
007AC:  DATA 2D,0D
007AE:  DATA 0A,00
007B0:  DATA 2D,2D
007B2:  DATA 2D,20
007B4:  DATA 53,4D
007B6:  DATA 46,20
007B8:  DATA 54,72
007BA:  DATA 61,6E
007BC:  DATA 73,66
007BE:  DATA 65,72
007C0:  DATA 20,50
007C2:  DATA 72,65
007C4:  DATA 70,61
007C6:  DATA 72,65
007C8:  DATA 20,2D
007CA:  DATA 2D,2D
007CC:  DATA 0D,0A
007CE:  DATA 00,00
007D0:  DATA 2D,2D
007D2:  DATA 2D,20
007D4:  DATA 53,4D
007D6:  DATA 46,20
007D8:  DATA 54,72
007DA:  DATA 61,6E
007DC:  DATA 73,66
007DE:  DATA 65,72
007E0:  DATA 20,45
007E2:  DATA 78,65
007E4:  DATA 63,75
007E6:  DATA 74,65
007E8:  DATA 20,2D
007EA:  DATA 2D,2D
007EC:  DATA 0D,0A
007EE:  DATA 00,00
007F0:  DATA 2D,2D
007F2:  DATA 2D,20
007F4:  DATA 53,4D
007F6:  DATA 46,20
007F8:  DATA 54,72
007FA:  DATA 61,6E
007FC:  DATA 73,66
007FE:  DATA 65,72
00800:  DATA 20,50
00802:  DATA 65,72
00804:  DATA 6D,69
00806:  DATA 74,20
00808:  DATA 2D,2D
0080A:  DATA 2D,0D
0080C:  DATA 0A,00
0080E:  DATA 2D,2D
00810:  DATA 2D,20
00812:  DATA 53,4D
00814:  DATA 46,20
00816:  DATA 54,72
00818:  DATA 61,6E
0081A:  DATA 73,66
0081C:  DATA 65,72
0081E:  DATA 20,53
00820:  DATA 65,71
00822:  DATA 75,65
00824:  DATA 6E,63
00826:  DATA 65,20
00828:  DATA 43,6F
0082A:  DATA 6D,70
0082C:  DATA 6C,65
0082E:  DATA 74,65
00830:  DATA 20,2D
00832:  DATA 2D,2D
00834:  DATA 0D,0A
00836:  DATA 00,00
00838:  DATA 0D,0A
0083A:  DATA 0D,0A
0083C:  DATA 0D,0A
0083E:  DATA 3D,3D
00840:  DATA 3D,3D
00842:  DATA 3D,3D
00844:  DATA 3D,3D
00846:  DATA 3D,3D
00848:  DATA 3D,3D
0084A:  DATA 3D,3D
0084C:  DATA 3D,3D
0084E:  DATA 3D,3D
00850:  DATA 3D,3D
00852:  DATA 3D,3D
00854:  DATA 3D,3D
00856:  DATA 3D,3D
00858:  DATA 3D,3D
0085A:  DATA 3D,3D
0085C:  DATA 3D,3D
0085E:  DATA 3D,3D
00860:  DATA 3D,3D
00862:  DATA 3D,3D
00864:  DATA 3D,3D
00866:  DATA 3D,3D
00868:  DATA 3D,3D
0086A:  DATA 3D,3D
0086C:  DATA 3D,3D
0086E:  DATA 3D,3D
00870:  DATA 3D,3D
00872:  DATA 3D,3D
00874:  DATA 3D,3D
00876:  DATA 3D,3D
00878:  DATA 3D,3D
0087A:  DATA 0D,0A
0087C:  DATA 00,00
0087E:  DATA 54,68
00880:  DATA 69,73
00882:  DATA 20,69
00884:  DATA 73,20
00886:  DATA 4D,4F
00888:  DATA 4D,49
0088A:  DATA 4A,49
0088C:  DATA 20,43
0088E:  DATA 49,47
00890:  DATA 53,20
00892:  DATA 50,49
00894:  DATA 43,20
00896:  DATA 42,42
00898:  DATA 4D,20
0089A:  DATA 66,6F
0089C:  DATA 72,20
0089E:  DATA 4D,49
008A0:  DATA 53,37
008A2:  DATA 5F,42
008A4:  DATA 42,4D
008A6:  DATA 34,2E
008A8:  DATA 0D,0A
008AA:  DATA 00,00
008AC:  DATA 4C,61
008AE:  DATA 73,74
008B0:  DATA 20,75
008B2:  DATA 70,64
008B4:  DATA 61,74
008B6:  DATA 65,64
008B8:  DATA 20,6F
008BA:  DATA 6E,20
008BC:  DATA 25,73
008BE:  DATA 20,25
008C0:  DATA 73,2C
008C2:  DATA 20,62
008C4:  DATA 79,20
008C6:  DATA 49,6E
008C8:  DATA 6F,75
008CA:  DATA 65,2E
008CC:  DATA 0D,0A
008CE:  DATA 0D,0A
008D0:  DATA 00,00
008D2:  DATA 33,2D
008D4:  DATA 4D,61
008D6:  DATA 72,2D
008D8:  DATA 32,36
008DA:  DATA 00,00
008DC:  DATA 31,36
008DE:  DATA 3A,32
008E0:  DATA 34,3A
008E2:  DATA 33,35
008E4:  DATA 00,00
008E6:  DATA 5F,5F
008E8:  DATA 5F,5F
008EA:  DATA 43,49
008EC:  DATA 47,53
008EE:  DATA 20,50
008F0:  DATA 49,43
008F2:  DATA 20,53
008F4:  DATA 74,61
008F6:  DATA 72,74
008F8:  DATA 20,4F
008FA:  DATA 70,65
008FC:  DATA 72,61
008FE:  DATA 74,69
00900:  DATA 6F,6E
00902:  DATA 5F,5F
00904:  DATA 5F,5F
00906:  DATA 5F,0D
00908:  DATA 0A,0D
0090A:  DATA 0A,00
0090C:  DATA 77,61
0090E:  DATA 69,74
00910:  DATA 69,6E
00912:  DATA 67,20
00914:  DATA 66,6F
00916:  DATA 72,20
00918:  DATA 42,4F
0091A:  DATA 53,53
0091C:  DATA 20,50
0091E:  DATA 49,43
00920:  DATA 20,63
00922:  DATA 6F,6D
00924:  DATA 6D,61
00926:  DATA 6E,64
00928:  DATA 00,00
0092A:  DATA 0D,0A
0092C:  DATA 77,61
0092E:  DATA 69,74
00930:  DATA 69,6E
00932:  DATA 67,20
00934:  DATA 66,6F
00936:  DATA 72,20
00938:  DATA 42,4F
0093A:  DATA 53,53
0093C:  DATA 20,50
0093E:  DATA 49,43
00940:  DATA 20,63
00942:  DATA 6F,6D
00944:  DATA 6D,61
00946:  DATA 6E,64
00948:  DATA 00,00
0094A:  DATA 0D,0A
0094C:  DATA 0D,0A
0094E:  DATA 3D,3D
00950:  DATA 3D,3D
00952:  DATA 3D,3D
00954:  DATA 0D,0A
00956:  DATA 0D,0A
00958:  DATA 46,69
0095A:  DATA 6E,69
0095C:  DATA 73,68
0095E:  DATA 65,64
00960:  DATA 20,70
00962:  DATA 72,6F
00964:  DATA 63,65
00966:  DATA 73,73
00968:  DATA 2E,0D
0096A:  DATA 0A,57
0096C:  DATA 61,69
0096E:  DATA 74,20
00970:  DATA 66,6F
00972:  DATA 72,20
00974:  DATA 42,4F
00976:  DATA 53,53
00978:  DATA 20,50
0097A:  DATA 49,43
0097C:  DATA 20,74
0097E:  DATA 75,72
00980:  DATA 6E,20
00982:  DATA 6F,66
00984:  DATA 66,20
00986:  DATA 6D,65
00988:  DATA 00,00
0098A:  DATA 45,6E
0098C:  DATA 64,20
0098E:  DATA 6D,61
00990:  DATA 69,6E
00992:  DATA 0D,0A
00994:  DATA 00,00
*
00A16:  TBLRD*+
00A18:  MOVF   FF5,F
00A1A:  BTFSC  FD8.2
00A1C:  GOTO   0A44
00A20:  MOVFF  FF6,204
00A24:  MOVFF  FF7,205
00A28:  MOVFF  FF8,206
00A2C:  MOVFF  FF5,208
00A30:  CALL   09C4
00A34:  MOVFF  204,FF6
00A38:  MOVFF  205,FF7
00A3C:  MOVFF  206,FF8
00A40:  GOTO   0A16
00A44:  RETURN 0
00A46:  TBLRD*+
00A48:  MOVFF  FF6,205
00A4C:  MOVFF  FF7,206
00A50:  MOVFF  FF8,207
00A54:  MOVFF  FF5,208
00A58:  CALL   09C4
00A5C:  MOVFF  205,FF6
00A60:  MOVFF  206,FF7
00A64:  MOVFF  207,FF8
00A68:  MOVLB  2
00A6A:  DECFSZ x04,F
00A6C:  BRA    0A72
00A6E:  BRA    0A78
00A70:  MOVLB  0
00A72:  MOVLB  0
00A74:  GOTO   0A46
00A78:  MOVLB  0
00A7A:  RETURN 0
*
00B86:  MOVLB  2
00B88:  MOVF   x22,W
00B8A:  ANDLW  07
00B8C:  MOVWF  00
00B8E:  RRCF   x22,W
00B90:  MOVWF  01
00B92:  RRCF   01,F
00B94:  RRCF   01,F
00B96:  MOVLW  1F
00B98:  ANDWF  01,F
00B9A:  MOVF   01,W
00B9C:  ADDWF  x24,W
00B9E:  MOVWF  FE9
00BA0:  MOVLW  00
00BA2:  ADDWFC x25,W
00BA4:  MOVWF  FEA
00BA6:  CLRF   01
00BA8:  INCF   01,F
00BAA:  INCF   00,F
00BAC:  MOVLB  0
00BAE:  GOTO   0BB4
00BB2:  RLCF   01,F
00BB4:  DECFSZ 00,F
00BB6:  GOTO   0BB2
00BBA:  MOVLB  2
00BBC:  MOVF   x23,F
00BBE:  BTFSS  FD8.2
00BC0:  BRA    0BC8
00BC2:  MOVLB  0
00BC4:  GOTO   0BD2
00BC8:  MOVF   01,W
00BCA:  IORWF  FEF,F
00BCC:  MOVLB  0
00BCE:  GOTO   0BD8
00BD2:  COMF   01,F
00BD4:  MOVF   01,W
00BD6:  ANDWF  FEF,F
00BD8:  RETURN 0
*
00F96:  TSTFSZ 01
00F98:  GOTO   0FA6
00F9C:  TSTFSZ 02
00F9E:  GOTO   0FA8
00FA2:  GOTO   0FB8
00FA6:  INCF   02,F
00FA8:  MOVFF  00,FEE
00FAC:  DECFSZ 01,F
00FAE:  GOTO   0FA8
00FB2:  DECFSZ 02,F
00FB4:  GOTO   0FA8
00FB8:  RETURN 0
*
01394:  MOVLB  1
01396:  BTFSS  x7E.7
01398:  BRA    13A0
0139A:  MOVLB  0
0139C:  GOTO   13D0
013A0:  MOVLW  0F
013A2:  MOVWF  00
013A4:  SWAPF  x7D,W
013A6:  ANDWF  00,F
013A8:  MOVLW  0A
013AA:  SUBWF  00,W
013AC:  BTFSS  FD8.0
013AE:  BRA    13B6
013B0:  MOVLB  0
013B2:  GOTO   13C0
013B6:  MOVLW  30
013B8:  ADDWF  00,F
013BA:  MOVLB  0
013BC:  GOTO   13C8
013C0:  MOVLB  1
013C2:  MOVF   x7E,W
013C4:  ADDWF  00,F
013C6:  MOVLB  0
013C8:  MOVFF  00,208
013CC:  CALL   09C4
013D0:  MOVLW  0F
013D2:  MOVLB  1
013D4:  ANDWF  x7D,F
013D6:  MOVLW  0A
013D8:  SUBWF  x7D,W
013DA:  BTFSS  FD8.0
013DC:  BRA    13E4
013DE:  MOVLB  0
013E0:  GOTO   13EC
013E4:  MOVLW  30
013E6:  MOVLB  0
013E8:  GOTO   13F4
013EC:  MOVLB  1
013EE:  BCF    x7E.7
013F0:  MOVF   x7E,W
013F2:  MOVLB  0
013F4:  MOVLB  1
013F6:  ADDWF  x7D,F
013F8:  MOVFF  17D,208
013FC:  MOVLB  0
013FE:  CALL   09C4
01402:  RETURN 0
*
02826:  MOVLB  2
02828:  MOVF   x07,W
0282A:  CLRF   01
0282C:  SUBWF  x06,W
0282E:  BTFSS  FD8.0
02830:  BRA    2838
02832:  MOVLB  0
02834:  GOTO   2842
02838:  MOVF   x06,W
0283A:  MOVWF  00
0283C:  MOVLB  0
0283E:  GOTO   286C
02842:  CLRF   00
02844:  MOVLW  08
02846:  MOVLB  2
02848:  MOVWF  x08
0284A:  MOVLB  0
0284C:  MOVLB  2
0284E:  RLCF   x06,F
02850:  RLCF   00,F
02852:  MOVF   x07,W
02854:  SUBWF  00,W
02856:  BTFSC  FD8.0
02858:  MOVWF  00
0285A:  RLCF   01,F
0285C:  DECFSZ x08,F
0285E:  BRA    2864
02860:  BRA    286A
02862:  MOVLB  0
02864:  MOVLB  0
02866:  GOTO   284C
0286A:  MOVLB  0
0286C:  RETURN 0
0286E:  MOVF   01,W
02870:  MOVFF  204,206
02874:  MOVLW  64
02876:  MOVLB  2
02878:  MOVWF  x07
0287A:  MOVLB  0
0287C:  CALL   2826
02880:  MOVFF  00,204
02884:  MOVF   01,W
02886:  MOVLW  30
02888:  BTFSS  FD8.2
0288A:  GOTO   28AE
0288E:  MOVLB  2
02890:  BTFSC  x05.1
02892:  BRA    289A
02894:  MOVLB  0
02896:  GOTO   28C2
0289A:  BTFSS  x05.3
0289C:  BRA    28A4
0289E:  MOVLB  0
028A0:  GOTO   28C2
028A4:  BTFSC  x05.4
028A6:  MOVLW  20
028A8:  MOVLB  0
028AA:  GOTO   28B8
028AE:  MOVLB  2
028B0:  BCF    x05.3
028B2:  BCF    x05.4
028B4:  BSF    x05.0
028B6:  MOVLB  0
028B8:  ADDWF  01,F
028BA:  MOVFF  01,208
028BE:  CALL   09C4
028C2:  MOVFF  204,206
028C6:  MOVLW  0A
028C8:  MOVLB  2
028CA:  MOVWF  x07
028CC:  MOVLB  0
028CE:  CALL   2826
028D2:  MOVFF  00,204
028D6:  MOVF   01,W
028D8:  MOVLW  30
028DA:  BTFSS  FD8.2
028DC:  GOTO   28FC
028E0:  MOVLB  2
028E2:  BTFSS  x05.3
028E4:  BRA    28EC
028E6:  MOVLB  0
028E8:  GOTO   2906
028EC:  BTFSC  x05.0
028EE:  BRA    28F6
028F0:  MOVLB  0
028F2:  GOTO   2906
028F6:  BTFSC  x05.4
028F8:  MOVLW  20
028FA:  MOVLB  0
028FC:  ADDWF  01,F
028FE:  MOVFF  01,208
02902:  CALL   09C4
02906:  MOVLW  30
02908:  MOVLB  2
0290A:  ADDWF  x04,F
0290C:  MOVFF  204,208
02910:  MOVLB  0
02912:  CALL   09C4
02916:  RETURN 0
*
03098:  BTFSC  FD8.1
0309A:  GOTO   30A6
0309E:  MOVLW  01
030A0:  MOVWF  FEA
030A2:  MOVLW  78
030A4:  MOVWF  FE9
030A6:  CLRF   00
030A8:  CLRF   01
030AA:  CLRF   02
030AC:  CLRF   03
030AE:  MOVLB  1
030B0:  CLRF   x78
030B2:  CLRF   x79
030B4:  CLRF   x7A
030B6:  CLRF   x7B
030B8:  MOVF   x77,W
030BA:  IORWF  x76,W
030BC:  IORWF  x75,W
030BE:  IORWF  x74,W
030C0:  BTFSS  FD8.2
030C2:  BRA    30CA
030C4:  MOVLB  0
030C6:  GOTO   315A
030CA:  MOVLB  0
030CC:  MOVLW  20
030CE:  MOVLB  1
030D0:  MOVWF  x7C
030D2:  MOVLB  0
030D4:  BCF    FD8.0
030D6:  MOVLB  1
030D8:  RLCF   x70,F
030DA:  RLCF   x71,F
030DC:  RLCF   x72,F
030DE:  RLCF   x73,F
030E0:  RLCF   x78,F
030E2:  RLCF   x79,F
030E4:  RLCF   x7A,F
030E6:  RLCF   x7B,F
030E8:  MOVF   x77,W
030EA:  SUBWF  x7B,W
030EC:  BTFSC  FD8.2
030EE:  BRA    30F6
030F0:  MOVLB  0
030F2:  GOTO   3118
030F6:  MOVF   x76,W
030F8:  SUBWF  x7A,W
030FA:  BTFSC  FD8.2
030FC:  BRA    3104
030FE:  MOVLB  0
03100:  GOTO   3118
03104:  MOVF   x75,W
03106:  SUBWF  x79,W
03108:  BTFSC  FD8.2
0310A:  BRA    3112
0310C:  MOVLB  0
0310E:  GOTO   3118
03112:  MOVF   x74,W
03114:  SUBWF  x78,W
03116:  MOVLB  0
03118:  BTFSS  FD8.0
0311A:  GOTO   3140
0311E:  MOVLB  1
03120:  MOVF   x74,W
03122:  SUBWF  x78,F
03124:  MOVF   x75,W
03126:  BTFSS  FD8.0
03128:  INCFSZ x75,W
0312A:  SUBWF  x79,F
0312C:  MOVF   x76,W
0312E:  BTFSS  FD8.0
03130:  INCFSZ x76,W
03132:  SUBWF  x7A,F
03134:  MOVF   x77,W
03136:  BTFSS  FD8.0
03138:  INCFSZ x77,W
0313A:  SUBWF  x7B,F
0313C:  BSF    FD8.0
0313E:  MOVLB  0
03140:  RLCF   00,F
03142:  RLCF   01,F
03144:  RLCF   02,F
03146:  RLCF   03,F
03148:  MOVLB  1
0314A:  DECFSZ x7C,F
0314C:  BRA    3152
0314E:  BRA    3158
03150:  MOVLB  0
03152:  MOVLB  0
03154:  GOTO   30D4
03158:  MOVLB  0
0315A:  MOVFF  178,FEF
0315E:  MOVFF  179,FEC
03162:  MOVFF  17A,FEC
03166:  MOVFF  17B,FEC
0316A:  MOVF   FED,F
0316C:  MOVF   FED,F
0316E:  MOVF   FED,F
03170:  RETURN 0
03172:  MOVF   FE9,W
03174:  MOVLB  1
03176:  MOVWF  x68
03178:  MOVLW  3B
0317A:  MOVWF  x6F
0317C:  MOVLW  9A
0317E:  MOVWF  x6E
03180:  MOVLW  CA
03182:  MOVWF  x6D
03184:  CLRF   x6C
03186:  MOVLW  0A
03188:  MOVWF  x6A
0318A:  MOVLB  0
0318C:  BSF    FD8.1
0318E:  MOVLW  01
03190:  MOVWF  FEA
03192:  MOVLW  64
03194:  MOVWF  FE9
03196:  MOVFF  167,173
0319A:  MOVFF  166,172
0319E:  MOVFF  165,171
031A2:  MOVFF  164,170
031A6:  MOVFF  16F,177
031AA:  MOVFF  16E,176
031AE:  MOVFF  16D,175
031B2:  MOVFF  16C,174
031B6:  CALL   3098
031BA:  MOVF   01,W
031BC:  MOVF   00,F
031BE:  BTFSS  FD8.2
031C0:  GOTO   3218
031C4:  MOVLB  1
031C6:  MOVF   x6A,W
031C8:  XORLW  01
031CA:  BTFSS  FD8.2
031CC:  BRA    31D4
031CE:  MOVLB  0
031D0:  GOTO   3218
031D4:  MOVF   x68,W
031D6:  BTFSS  FD8.2
031D8:  BRA    31E0
031DA:  MOVLB  0
031DC:  GOTO   321E
031E0:  ANDLW  0F
031E2:  SUBWF  x6A,W
031E4:  BTFSS  FD8.2
031E6:  BRA    31EE
031E8:  MOVLB  0
031EA:  GOTO   31FA
031EE:  BTFSS  FD8.0
031F0:  BRA    31F8
031F2:  MOVLB  0
031F4:  GOTO   322A
031F8:  MOVLB  0
031FA:  MOVLB  1
031FC:  BTFSS  x68.7
031FE:  BRA    3206
03200:  MOVLB  0
03202:  GOTO   322A
03206:  BTFSS  x68.6
03208:  BRA    3210
0320A:  MOVLB  0
0320C:  GOTO   321E
03210:  MOVLW  20
03212:  MOVLB  0
03214:  GOTO   3220
03218:  MOVLB  1
0321A:  CLRF   x68
0321C:  MOVLB  0
0321E:  MOVLW  30
03220:  ADDWF  00,F
03222:  MOVFF  00,208
03226:  CALL   09C4
0322A:  BCF    FD8.1
0322C:  MOVFF  16F,173
03230:  MOVFF  16E,172
03234:  MOVFF  16D,171
03238:  MOVFF  16C,170
0323C:  MOVLB  1
0323E:  CLRF   x77
03240:  CLRF   x76
03242:  CLRF   x75
03244:  MOVLW  0A
03246:  MOVWF  x74
03248:  MOVLB  0
0324A:  CALL   3098
0324E:  MOVFF  03,16F
03252:  MOVFF  02,16E
03256:  MOVFF  01,16D
0325A:  MOVFF  00,16C
0325E:  MOVLB  1
03260:  DECFSZ x6A,F
03262:  BRA    3268
03264:  BRA    326E
03266:  MOVLB  0
03268:  MOVLB  0
0326A:  GOTO   318C
0326E:  MOVLB  0
03270:  GOTO   33F4 (RETURN)
.................... 
.................... #list
.................... 
.................... #opt 0 // 0 = no optimization
.................... 
.................... #use delay(crystal=16MHz)
*
00996:  MOVLW  02
00998:  MOVWF  FEA
0099A:  MOVLW  1C
0099C:  MOVWF  FE9
0099E:  MOVF   FEF,W
009A0:  BTFSC  FD8.2
009A2:  GOTO   09C2
009A6:  MOVLW  05
009A8:  MOVWF  01
009AA:  CLRF   00
009AC:  DECFSZ 00,F
009AE:  BRA    09AC
009B0:  DECFSZ 01,F
009B2:  BRA    09AA
009B4:  MOVLW  2E
009B6:  MOVWF  00
009B8:  DECFSZ 00,F
009BA:  BRA    09B8
009BC:  BRA    09BE
009BE:  DECFSZ FEF,F
009C0:  BRA    09A6
009C2:  RETURN 0
.................... #fuses HS, NOWDT, NOBROWNOUT, NOPROTECT
.................... 
.................... #define PIC18
.................... 
.................... #ifdef PIC18
....................     // ==========================================
....................     // 1. гғҸгғјгғүгӮҰгӮ§гӮўж§ӢжҲҗгҒЁгғ”гғігӮўгӮөгӮӨгғі
....................     // ==========================================
.................... 
....................     #define PIN_LDO_EN          PIN_E1
....................     #define PIN_VREF_EN         PIN_E0
....................     #define PIN_LED1            PIN_A5
....................     #define PIN_LED2            PIN_A1
.................... 
....................     #define PIN_SW_DIO1         PIN_C1
....................     #define PIN_SW_DIO0         PIN_C2
.................... 
....................     // SPI Chip Select (BOSSгғҳгғғгғҖеҗҚз§°гҒ«йҒ©еҗҲ)
....................     #define MIS_FM_CS           PIN_B1
....................     #define SMF_CS              PIN_D4
....................     #define PIN_CS_ADC          PIN_B3
.................... 
.................... // ------------------------------------------
....................     // UART йҖҡдҝЎиЁӯе®ҡ (еј·еҲ¶гӮҪгғ•гғҲгӮҰгӮ§гӮўеҲ¶еҫЎ)
....................     // ------------------------------------------
....................     #use rs232(baud=9600, parity=N, xmit=PIN_G0, bits=8, stream=PC, FORCE_SW, ERRORS)
009C4:  BCF    F98.0
009C6:  BCF    F8F.0
009C8:  MOVLW  08
009CA:  MOVWF  01
009CC:  BRA    09CE
009CE:  NOP   
009D0:  BSF    01.7
009D2:  GOTO   09FA
009D6:  BCF    01.7
009D8:  MOVLB  2
009DA:  RRCF   x08,F
009DC:  MOVLB  0
009DE:  BTFSC  FD8.0
009E0:  BSF    F8F.0
009E2:  BTFSS  FD8.0
009E4:  BCF    F8F.0
009E6:  BSF    01.6
009E8:  GOTO   09FA
009EC:  BCF    01.6
009EE:  DECFSZ 01,F
009F0:  GOTO   09D8
009F4:  BRA    09F6
009F6:  NOP   
009F8:  BSF    F8F.0
009FA:  MOVLW  84
009FC:  MOVWF  FE9
009FE:  DECFSZ FE9,F
00A00:  GOTO   09FE
00A04:  BRA    0A06
00A06:  NOP   
00A08:  BTFSC  01.7
00A0A:  GOTO   09D6
00A0E:  BTFSC  01.6
00A10:  GOTO   09EC
00A14:  RETURN 0
....................     #use rs232(baud=9600, parity=N, xmit=PIN_D1, rcv=PIN_D0, bits=8, stream=BOSS, FORCE_SW, ERRORS)
*
0266E:  BCF    F95.1
02670:  BCF    F8C.1
02672:  MOVLW  08
02674:  MOVWF  01
02676:  BRA    2678
02678:  NOP   
0267A:  BSF    01.7
0267C:  GOTO   26A4
02680:  BCF    01.7
02682:  MOVLB  1
02684:  RRCF   x7B,F
02686:  MOVLB  0
02688:  BTFSC  FD8.0
0268A:  BSF    F8C.1
0268C:  BTFSS  FD8.0
0268E:  BCF    F8C.1
02690:  BSF    01.6
02692:  GOTO   26A4
02696:  BCF    01.6
02698:  DECFSZ 01,F
0269A:  GOTO   2682
0269E:  BRA    26A0
026A0:  NOP   
026A2:  BSF    F8C.1
026A4:  MOVLW  84
026A6:  MOVWF  FE9
026A8:  DECFSZ FE9,F
026AA:  GOTO   26A8
026AE:  BRA    26B0
026B0:  NOP   
026B2:  BTFSC  01.7
026B4:  GOTO   2680
026B8:  BTFSC  01.6
026BA:  GOTO   2696
026BE:  GOTO   26F6 (RETURN)
.................... 
....................     // ------------------------------------------
....................     // SPI йҖҡдҝЎиЁӯе®ҡ (еј·еҲ¶гӮҪгғ•гғҲгӮҰгӮ§гӮўеҲ¶еҫЎ)
....................     // ------------------------------------------
....................     #use spi(MASTER, BAUD=1000000, MODE=0, BITS=8, DI=PIN_B5, DO=PIN_B4, CLK=PIN_B2, stream=MIS_FM_STREAM, FORCE_SW)
*
00BDA:  MOVLB  2
00BDC:  MOVF   x3F,W
00BDE:  SUBLW  08
00BE0:  BTFSS  FD8.2
00BE2:  BRA    0BEA
00BE4:  MOVLB  0
00BE6:  GOTO   0C02
00BEA:  MOVWF  x41
00BEC:  MOVLB  0
00BEE:  MOVLB  2
00BF0:  RLCF   x3E,F
00BF2:  DECFSZ x41,F
00BF4:  BRA    0BFA
00BF6:  BRA    0C00
00BF8:  MOVLB  0
00BFA:  MOVLB  0
00BFC:  GOTO   0BEE
00C00:  MOVLB  0
00C02:  BSF    F93.5
00C04:  BCF    F93.4
00C06:  BCF    F93.2
00C08:  BCF    F8A.2
00C0A:  MOVFF  23F,241
00C0E:  MOVLB  2
00C10:  BTFSS  x3E.7
00C12:  BCF    F8A.4
00C14:  BTFSC  x3E.7
00C16:  BSF    F8A.4
00C18:  RLCF   x3E,F
00C1A:  BSF    F8A.2
00C1C:  RLCF   01,F
00C1E:  BTFSS  F81.5
00C20:  BCF    01.0
00C22:  BTFSC  F81.5
00C24:  BSF    01.0
00C26:  BCF    F8A.2
00C28:  DECFSZ x41,F
00C2A:  BRA    0C30
00C2C:  BRA    0C36
00C2E:  MOVLB  0
00C30:  MOVLB  0
00C32:  GOTO   0C0E
00C36:  MOVLB  0
00C38:  RETURN 0
....................     #use spi(MASTER, BAUD=1000000, MODE=0, BITS=8, DI=PIN_D6, DO=PIN_D7, CLK=PIN_D5, stream=SMF_STREAM, FORCE_SW)
00C3A:  MOVLB  2
00C3C:  MOVF   x3F,W
00C3E:  SUBLW  08
00C40:  BTFSS  FD8.2
00C42:  BRA    0C4A
00C44:  MOVLB  0
00C46:  GOTO   0C62
00C4A:  MOVWF  x41
00C4C:  MOVLB  0
00C4E:  MOVLB  2
00C50:  RLCF   x3E,F
00C52:  DECFSZ x41,F
00C54:  BRA    0C5A
00C56:  BRA    0C60
00C58:  MOVLB  0
00C5A:  MOVLB  0
00C5C:  GOTO   0C4E
00C60:  MOVLB  0
00C62:  BSF    F95.6
00C64:  BCF    F95.7
00C66:  BCF    F95.5
00C68:  BCF    F8C.5
00C6A:  MOVFF  23F,241
00C6E:  MOVLB  2
00C70:  BTFSS  x3E.7
00C72:  BCF    F8C.7
00C74:  BTFSC  x3E.7
00C76:  BSF    F8C.7
00C78:  RLCF   x3E,F
00C7A:  BSF    F8C.5
00C7C:  RLCF   01,F
00C7E:  BTFSS  F83.6
00C80:  BCF    01.0
00C82:  BTFSC  F83.6
00C84:  BSF    01.0
00C86:  BCF    F8C.5
00C88:  DECFSZ x41,F
00C8A:  BRA    0C90
00C8C:  BRA    0C96
00C8E:  MOVLB  0
00C90:  MOVLB  0
00C92:  GOTO   0C6E
00C96:  MOVLB  0
00C98:  RETURN 0
.................... 
.................... #endif
.................... 
.................... // ==========================================
.................... // 2. гӮ·гӮ№гғҶгғ гӮ·гғјгӮұгғігӮ№ гӮігғһгғігғүе®ҡзҫ©
.................... // ==========================================
.................... #define CMD_MISSION_START       0x10
.................... #define RES_MISSION_DONE        0x11
.................... #define CMD_SMF_PREPARE         0x20
.................... #define REQ_SMF_COPY            0x21
.................... #define CMD_SMF_PERMIT          0x22
.................... #define REQ_POWER_OFF           0x30
.................... 
.................... // ==========================================
.................... // 3. гғҮгғјгӮҝгғ•гӮ©гғјгғһгғғгғҲгғ»гғҗгғғгғ•гӮЎе®ҡзҫ©
.................... // ==========================================
.................... #define PACKET_SIZE             64
.................... #define FLASH_PAGE_SIZE         256
.................... #define PACKETS_PER_PAGE        4
.................... #define SMF_TRANSFER_PACKETS    15
.................... 
.................... // гғҳгғғгғҖгғјж§ӢйҖ дҪ“ (8Byte)
.................... typedef struct
.................... {
....................     unsigned int32 timestamp;      // 4 Byte
....................     unsigned int8  mode : 3;       // 3 bit
....................     unsigned int8  channel : 1;    // 1 bit
....................     unsigned int8  samplingRate : 4; // 4 bit
....................     unsigned int16 dataCount;      // 12bitгҒ§гҒҜгҒӘгҒҸ16bit(2Byte)гҒ§зўәдҝқгҒ—гӮЁгғ©гғјгӮ’еӣһйҒҝ
....................     unsigned int8  zeroFill;       // 1 Byte (еҗҲиЁҲ8ByteгҒ«гҒҷгӮӢгҒҹгӮҒ)
.................... } PacketHeader;
.................... 
.................... typedef struct
.................... {
....................     PacketHeader header;           // 8 Byte
....................     unsigned int8 packetNum;       // 1 Byte
....................     unsigned int16 adcData[27];    // 54 Byte
....................     unsigned int8 crc8;            // 1 Byte
.................... } FirstPacket;
.................... 
.................... typedef struct
.................... {
....................     unsigned int8 packetNum;       // 1 Byte
....................     unsigned int16 adcData[31];    // 62 Byte
....................     unsigned int8 crc8;            // 1 Byte
.................... } SubsequentPacket;
.................... 
.................... typedef union
.................... {
....................     unsigned int8 raw[PACKET_SIZE];
....................     FirstPacket first;
....................     SubsequentPacket sub;
.................... } PacketBuffer;
.................... 
.................... #endif // son_tmp_CONFIG_H
.................... 
.................... 
.................... // гғ¬гғҷгғ«2: гғҸгғјгғүгӮҰгӮ§гӮўжҠҪиұЎеҢ–еұӨ
.................... #include "../hardware/mcu/timer.h"
.................... #ifndef TIMER_H
.................... #define TIMER_H
.................... 
.................... #include <stdint.h>
.................... ///////////////////////////////////////////////////////////////////////////
.................... ////                                                                   ////
.................... ////                           stdint.h                                ////
.................... ////                                                                   ////
.................... //// Standard integer definitions.                                     ////
.................... ////                                                                   ////
.................... ///////////////////////////////////////////////////////////////////////////
.................... ////        (C) Copyright 1996,2008 Custom Computer Services           ////
.................... //// This source code may only be used by licensed users of the CCS C  ////
.................... //// compiler.  This source code may only be distributed to other      ////
.................... //// licensed users of the CCS C compiler.  No other use, reproduction ////
.................... //// or distribution is permitted without written permission.          ////
.................... //// Derivative programs created using this software in object code    ////
.................... //// form are not restricted in any way.                               ////
.................... ///////////////////////////////////////////////////////////////////////////
.................... 
.................... #ifndef _STDINT
.................... 
.................... #define _STDINT
.................... 
.................... //////////// exact width
.................... 
.................... typedef signed int8 int8_t;
.................... typedef unsigned int8 uint8_t;
.................... typedef signed int16 int16_t;
.................... typedef unsigned int16 uint16_t;
.................... typedef signed int32 int32_t;
.................... typedef unsigned int32 uint32_t;
.................... 
.................... #if defined(__PCD__)
.................... //typedef signed int24 int24_t;
.................... //typedef unsigned int24 uint24_t;
.................... typedef signed int64 int64_t;
.................... typedef unsigned int64 uint64_t;
.................... #endif
.................... 
.................... #define INT8_MAX  (127)
.................... #define INT8_MIN  (-128)
.................... #define UINT8_MAX (255)
.................... 
.................... #define INT16_MAX  (32767)
.................... #define INT16_MIN  (-32768)
.................... #define UINT16_MAX (65535)
.................... 
.................... #define INT32_MAX  (2147483647)
.................... #define INT32_MIN  (-2147483648)
.................... #define UINT32_MAX (4294967295)
.................... 
.................... #if defined(__PCD__)
.................... //#define INT24_MAX  (8388607)
.................... //#define INT24_MIN  (-8388608)
.................... //#define UINT24_MAX (16777215)
.................... 
.................... #define INT64_MAX  (9223372036854775807)
.................... #define INT64_MIN  (-9223372036854775808)
.................... #define UINT64_MAX (18446744073709551615)
.................... #endif
.................... 
.................... ///////// minimum width
.................... 
.................... typedef signed int8 int_least8_t;
.................... typedef unsigned int8 uint_least8_t;
.................... typedef signed int16 int_least16_t;
.................... typedef unsigned int16 uint_least16_t;
.................... typedef signed int32 int_least32_t;
.................... typedef unsigned int32 uint_least32_t;
.................... 
.................... #if defined(__PCD__)
.................... //typedef signed int24 int_least24_t;
.................... //typedef unsigned int24 uint_least24_t;
.................... typedef signed int64 int_least64_t;
.................... typedef unsigned int64 uint_least64_t;
.................... #endif
.................... 
.................... #define INT_LEAST8_MAX  (127)
.................... #define INT_LEAST8_MIN  (-128)
.................... #define UINT_LEAST8_MAX (255)
.................... 
.................... #define INT_LEAST16_MAX  (32767)
.................... #define INT_LEAST16_MIN  (-32768)
.................... #define UINT_LEAST16_MAX (65535)
.................... 
.................... #define INT_LEAST32_MAX  (2147483647)
.................... #define INT_LEAST32_MIN  (-2147483648)
.................... #define UINT_LEAST32_MAX (4294967295)
.................... 
.................... #if defined(__PCD__)
.................... //#define INT_LEAST24_MAX  (8388607)
.................... //#define INT_LEAST24_MIN  (-8388608)
.................... //#define UINT_LEAST24_MAX (16777215)
.................... 
.................... #define INT_LEAST64_MAX  (9223372036854775807)
.................... #define INT_LEAST64_MIN  (-9223372036854775808)
.................... #define UINT_LEAST64_MAX (18446744073709551615)
.................... #endif
.................... 
.................... ///////// fastest width
.................... 
.................... #if defined(__PCD__)
.................... typedef signed int16 int_fast8_t;
.................... typedef unsigned int16 uint_fast8_t;
.................... #define INT_FAST8_MAX  (32767)
.................... #define INT_FAST8_MIN  (-32768)
.................... #define UINT_FAST8_MAX (65535)
.................... typedef signed int16 int_fast16_t;
.................... typedef unsigned int16 uint_fast16_t;
.................... //typedef signed int24 int_fast24_t;
.................... //typedef unsigned int24 uint_fast24_t;
.................... typedef signed int64 int_fast64_t;
.................... typedef unsigned int64 uint_fast64_t;
.................... #else
.................... typedef signed int8 int_fast8_t;
.................... typedef unsigned int8 uint_fast8_t;
.................... #define INT_FAST8_MAX  (127)
.................... #define INT_FAST8_MIN  (-128)
.................... #define UINT_FAST8_MAX (255)
.................... typedef signed int16 int_fast16_t;
.................... typedef unsigned int16 uint_fast16_t;
.................... #endif
.................... 
.................... typedef signed int32 int_fast32_t;
.................... typedef unsigned int32 uint_fast32_t;
.................... 
.................... #define INT_FAST16_MAX  (32767)
.................... #define INT_FAST16_MIN  (-32768)
.................... #define UINT_FAST16_MAX (65535)
.................... 
.................... #define INT_FAST32_MAX  (2147483647)
.................... #define INT_FAST32_MIN  (-2147483648)
.................... #define UINT_FAST32_MAX (4294967295)
.................... 
.................... #if defined(__PCD__)
.................... //#define INT_FAST24_MAX  (8388607)
.................... //#define INT_FAST24_MIN  (-8388608)
.................... //#define UINT_FAST24_MAX (16777215)
.................... 
.................... #define INT_FAST64_MAX  (9223372036854775807)
.................... #define INT_FAST64_MIN  (-9223372036854775808)
.................... #define UINT_FAST64_MAX (18446744073709551615)
.................... #endif
.................... 
.................... //////////// big enough to hold pointers (OPTIONAL)
.................... 
.................... #if defined(__PCD__)
....................    typedef unsigned int32 uintptr_t;
....................    typedef signed int32 intptr_t;
.................... #else
....................    typedef unsigned int16 uintptr_t;
....................    typedef signed int16 intptr_t;
.................... #endif
.................... 
.................... #define INT8_C(val) ((int8_t)val)
.................... #define UINT8_C(val) ((uint8_t)val)
.................... #define INT16_C(val) ((int16_t)val)
.................... #define UINT16_C(val) ((uint16_t)val)
.................... #define INT32_C(val) ((int32_t)val)
.................... #define UINT32_C(val) ((uint32_t)val)
.................... 
.................... #if defined(__PCD__)
.................... #define INT64_C(val) ((int64_t)val)
.................... #define UINT64_C(val) ((uint64_t)val)
.................... #endif
.................... 
.................... /// TODO:
.................... /// INTPTRN_MIN INTPTRN_MAX UINTPTRN_MAX
.................... 
.................... 
.................... /////////// greatest width (OPTIONAL)
.................... 
.................... #ifdef __PCD__
....................    typedef signed int64 intmax_t;
....................    typedef unsigned int64 uintmax_t;
....................    
....................    #define INTMAXN_MAX  (9223372036854775807)
....................    #define INTMAXN_MIN  (-9223372036854775808)
....................    #define UINTMAXN_MAX (18446744073709551615)
....................    
....................    #define INTMAX_C(value) ((signed int64)val)
....................    #define UINTMAX_C(value) ((unsigned int64)val)
.................... #else
....................    typedef signed int32 intmax_t;
....................    typedef unsigned int32 uintmax_t;
....................    
....................    #define INTMAXN_MAX  (2147483647)
....................    #define INTMAXN_MIN  (-2147483648)
....................    #define UINTMAXN_MAX (4294967295)
....................    
....................    #define INTMAX_C(value) ((signed int32)val)
....................    #define UINTMAX_C(value) ((unsigned int32)val)
.................... #endif
.................... 
.................... 
.................... #endif
.................... 
.................... 
.................... 
.................... // __________ values _________
.................... 
.................... // гғ‘гӮұгғғгғҲгғҳгғғгғҖгғјгҒ® timestamp гҒ§дҪҝз”ЁгҒҷгӮӢгҒҹгӮҒгҒ®з§’гӮ«гӮҰгғігӮҝ
.................... extern volatile uint32_t sec;
.................... 
.................... 
.................... // __________ functions _________
.................... uint32_t get_current_sec();
.................... void set_current_sec(uint32_t new_sec);
.................... void setup_timer();
.................... 
.................... #INT_TIMER1
.................... void TIMER1_isr();
.................... 
.................... #endif
.................... 
.................... #include "../hardware/mcu/uart.h"
.................... #ifndef UART_H
.................... #define UART_H
.................... 
.................... // _________ defines ________________
.................... 
.................... #define RECEIVE_BUFFER_MAX 32
.................... 
.................... 
.................... // _____________ values _______________
.................... 
.................... extern volatile unsigned int8 boss_receive_buffer[RECEIVE_BUFFER_MAX];
.................... extern volatile int8 boss_receive_buffer_size;
.................... 
.................... 
.................... // _______________ functions ___________
.................... 
.................... #INT_RDA
.................... static void RDA_isr(void);
.................... 
.................... void setup_uart_to_boss();
.................... 
.................... void clear_receive_signal(unsigned int8 receive_signal[], int8 *receive_signal_size);
.................... 
.................... 
.................... 
.................... #endif
.................... 
.................... 
.................... 
.................... // гғ¬гғҷгғ«3: еҹәжң¬гғ©гӮӨгғ–гғ©гғӘгғҳгғғгғҖгғјпјҲеһӢе®ҡзҫ©гғ»йҖҡдҝЎгғ»гғ„гғјгғ«пјү
.................... #include "../../lib/communication/typedef_content.h"
.................... #ifndef TYPEDEF_CONTENT_H
.................... #define TYPEDEF_CONTENT_H
.................... 
.................... // there is used in main.c
.................... 
.................... typedef enum {
....................     EXECUTING_MISSION = 0x02,
....................     IDLE              = 0x03,
....................     SMF_USE_REQ       = 0x04,
....................     COPYING           = 0x05,
....................     FINISHED          = 0x06
.................... } MisMcuStatusContent;
.................... 
.................... 
.................... typedef enum {
....................     ALLOW = 0x01,
....................     DENY  = 0x00
.................... } IsSmfAvailableContent;
.................... 
.................... 
.................... #endif
.................... 
.................... 
.................... #include "../../lib/communication/value_status.h"
.................... #ifndef VALUE_STATUS_H
.................... #define VALUE_STATUS_H
.................... 
.................... // there is used in main.c and mission
.................... 
.................... extern unsigned int8 status;
.................... extern int1 is_use_smf_req_in_mission;
.................... 
.................... //volatile int1 is_use_smf_req_in_mission = FALSE;
.................... //volatile int8 status[4] = {IDLE, 0, 0, 0};
.................... 
.................... 
.................... #endif
.................... 
.................... 
.................... #include "../../lib/tool/calc_tools.h"
.................... #ifndef CALC_TOOLS_H
.................... #define CALC_TOOLS_H
....................  
.................... unsigned int8 calc_crc8(unsigned int8 *frame, unsigned int8 payload_size);
.................... int1 is_crc_valid(unsigned int8 *frame, int8 payload_size);
.................... void int32_to_be_array(int32 value, int8 *buf, int8 index);
.................... int32 lsb_array_to_int32(int8 *buf, int8 index);
.................... unsigned int32 lsb_to_msb(unsigned int32 value);
.................... unsigned int32 msb_to_lsb(unsigned int32 value);
.................... 
.................... 
.................... #endif // CALC_TOOLS_H  
.................... 
.................... #include "../../lib/tool/smf_queue.h"
.................... #ifndef SMF_QUEUE_H
.................... #define SMF_QUEUE_H
.................... 
.................... typedef enum {
....................    ENUM_SMF_WRITE,    // SMFжӣёгҒҚиҫјгҒҝж“ҚдҪң
....................    ENUM_SMF_READ,     // SMFиӘӯгҒҝиҫјгҒҝж“ҚдҪң
....................    ENUM_SMF_ERASE     // SMFж¶ҲеҺ»ж“ҚдҪң
.................... } FunctionType;
.................... 
.................... // SMFжӣёгҒҚиҫјгҒҝгғўгғјгғү
.................... typedef enum {
....................    SMF_WRITE_OVERWRITE = 0x00,  // дёҠжӣёгҒҚгғўгғјгғү
....................    SMF_WRITE_APPEND = 0x01,     // иҝҪиЁҳгғўгғјгғү
....................    SMF_WRITE_CIRCULAR = 0x02    // еҫӘз’°жӣёгҒҚиҫјгҒҝгғўгғјгғүпјҲendгҒҫгҒ§иЎҢгҒЈгҒҹгӮүstartгҒ«жҲ»гӮӢпјү
.................... } SmfWriteMode;
.................... 
.................... // гғҮгғјгӮҝгӮҪгғјгӮ№гӮҝгӮӨгғ—
.................... typedef enum {
....................    SOURCE_MISF_UNCOPIED = 0x00, // MISFжңӘгӮігғ”гғјгғҮгғјгӮҝгӮ’и»ўйҖҒ
....................    SOURCE_MISF_MANUAL = 0x01    // MISFжҢҮе®ҡгӮўгғүгғ¬гӮ№гғ»гӮөгӮӨгӮәгӮ’и»ўйҖҒ
.................... } DataSourceType;
.................... 
.................... 
.................... typedef enum{
....................    CIGS_DATA_TABLE,
....................    CIGS_PICLOG_DATA,
....................    CIGS_ENVIRO_DATA,
....................    CIGS_IV_HEADER,
....................    CIGS_IV_DATA,
.................... } MissionID;
.................... 
.................... 
.................... 
.................... typedef struct {
....................    int32 start_address;
....................    int32 end_address;
.................... } SmfAddressStruct;
.................... 
.................... typedef struct{
....................    int32 misf_start_address;
....................    int32 misf_size;
.................... } SmfWriteStruct;
.................... 
.................... typedef struct {
....................     MissionID mission_id;                // гғҹгғғгӮ·гғ§гғіID
....................     FunctionType func_type;         // ж“ҚдҪңгӮҝгӮӨгғ—
....................     SmfWriteMode write_mode;        // жӣёгҒҚиҫјгҒҝгғўгғјгғүпјҲжӣёгҒҚиҫјгҒҝжҷӮгҒ®гҒҝпјү
....................     DataSourceType source_type;     // гғҮгғјгӮҝгӮҪгғјгӮ№гӮҝгӮӨгғ—
....................     int32 misf_start_addr;          // MISFжүӢеӢ•жҢҮе®ҡжҷӮгҒ®й–Ӣе§ӢгӮўгғүгғ¬гӮ№
....................     int32 misf_size;                // MISFжүӢеӢ•жҢҮе®ҡжҷӮгҒ®гӮөгӮӨгӮә
.................... } FlashOperationStruct;
.................... 
.................... #define SMF_QUEUE_SIZE 16
.................... typedef struct {
....................    FlashOperationStruct entries[SMF_QUEUE_SIZE];  // гӮӯгғҘгғјгӮЁгғігғҲгғӘгғјй…ҚеҲ—
....................    int8 head_index;                               // еҸ–гӮҠеҮәгҒ—дҪҚзҪ®пјҲиӘӯгҒҝеҸ–гӮҠгӮӨгғігғҮгғғгӮҜгӮ№пјү
....................    int8 tail_index;                               // иҝҪеҠ дҪҚзҪ®пјҲжӣёгҒҚиҫјгҒҝгӮӨгғігғҮгғғгӮҜгӮ№пјү
.................... } FlashQueueStruct;
.................... 
.................... 
.................... 
.................... // _____________________ values _________________
.................... 
.................... volatile FlashQueueStruct flash_queue = {0};
.................... 
.................... // MISF/SMFзөұеҗҲз®ЎзҗҶгӮӨгғігӮ№гӮҝгғігӮ№пјҲгғҹгғғгӮ·гғ§гғіеҲҘпјү
.................... //volatile MisfSmfManagerStruct misf_smf_manager[8] = {0}; // жңҖеӨ§8гғҹгғғгӮ·гғ§гғіеҜҫеҝң
.................... 
.................... 
.................... // ___________________ functions ________________
.................... 
.................... // MISF/SMFз®ЎзҗҶй–ўж•°
.................... void init_misf_smf_manager(int8 mission_id, int32 misf_start, int32 misf_size, int32 smf_start, int32 smf_size);
.................... void update_misf_data(int8 mission_id, int32 data_size);
.................... void process_misf_to_smf_transfer(int8 mission_id);
.................... int32 get_uncopied_data_size(int8 mission_id);
.................... void mark_data_copied(int8 mission_id, int32 copied_size);
.................... int1 is_misf_full(int8 mission_id);
.................... //MisfSmfManagerStruct* get_misf_smf_manager(int8 mission_id);
.................... 
.................... void enqueue_flash_operation(FlashOperationStruct *data);
.................... 
.................... FlashOperationStruct *dequeue_flash_operation();
.................... 
.................... FlashOperationStruct *peek_flash_operation(void);
.................... 
.................... void remove_flash_operation(void);
.................... 
.................... int1 is_empty_flash_queue(void);
.................... 
.................... SmfAddressStruct get_smf_address_struct(MissionID mission_id);
.................... 
.................... // дҫҝеҲ©гҒӘй–ўж•°
.................... void enqueue_uncopied_data(int8 mission_id, SmfWriteMode write_mode);
.................... void enqueue_manual_data(int8 mission_id, int32 misf_addr, int32 size, SmfWriteMode write_mode);
.................... void enqueue_read_data(int32 smf_addr, int32 size);
.................... void enqueue_erase_data(int32 smf_addr, int32 size);
.................... 
.................... // зөұеҗҲз®ЎзҗҶеҜҫеҝңгҒ®дҫҝеҲ©гҒӘй–ўж•°
.................... void enqueue_auto_transfer(int8 mission_id);  // жңӘгӮігғ”гғјгғҮгғјгӮҝгҒ®иҮӘеӢ•и»ўйҖҒ
.................... void complete_transfer_and_update_counter(int8 mission_id, int32 transferred_size);  // и»ўйҖҒе®ҢдәҶгҒЁгӮ«гӮҰгғігӮҝжӣҙж–°
.................... 
.................... SmfWriteStruct get_smf_write_struct(MissionID mission_id);
.................... #endif   //SMF_QUEUE_H
.................... 
.................... #include "../../lib/tool/mmj_smf_memorymap.h"
.................... #ifndef SMF_MEMORY_MAP_H
.................... #define SMF_MEMORY_MAP_H
.................... 
.................... /*
....................  * Auto-generated Memory Map Header
....................  * Generated from: MMJ_ICD_021_IICD_06_Memory_map.xlsx
....................  * Generated at: 2025-07-27 20:54:05
....................  */
.................... 
.................... #ifndef PACKET_SIZE
.................... #define PACKET_SIZE 64
.................... #endif
.................... 
.................... typedef struct {
....................     unsigned int32 used_size;
....................     unsigned int8 loop_counter;
....................     unsigned int8 reserved[3];
.................... } partition_header_t;
.................... 
.................... // payloadгҒ«иӨҮж•°гҒ®partition_headerгӮ’дёҰгҒ№гӮӢ
.................... typedef union {
....................     unsigned int8 bytes[PACKET_SIZE];  // з”ҹгғҮгғјгӮҝгӮўгӮҜгӮ»гӮ№з”Ё
.................... 
....................     struct {
....................         union {
....................             struct {
....................                 partition_header_t piclog;
....................                 partition_header_t enviroment;
....................                 partition_header_t iv_head;
....................                 partition_header_t iv_data;
....................             }cigs;
.................... 
....................             struct {
....................                 partition_header_t piclog;
....................                 partition_header_t enviroment;
....................                 partition_header_t iv_head;
....................                 partition_header_t iv_data;
....................             } satolab;
....................             // гғ•гғ©гғғгғҲгҒ«гӮўгӮҜгӮ»гӮ№гҒ—гҒҹгҒ„гҒЁгҒҚз”Ё
....................             partition_header_t headers[(PACKET_SIZE - 1) / sizeof(partition_header_t)];
....................         } payload;
.................... 
....................         unsigned int8 crc;  // жңҖеҫҢгҒ®1гғҗгӮӨгғҲ
....................     };
.................... } smf_data_table_t;
.................... 
.................... // Base Memory Configuration
.................... #define SMF_SIZE 0x08000000 // 128MB
.................... #define SMF_START_ADDRESS 0x00000000
.................... #define SMF_END_ADDRESS   0x07FFFFFF
.................... 
.................... 
.................... // ===== Device IDs from гғЎгғўгғӘгғһгғғгғ—  =====
.................... #define MAIN_DEVICE_ID 0x10
.................... #define COM_DEVICE_ID 0x20
.................... #define APRS_DEVICE_ID 0x60
.................... #define CAM_DEVICE_ID 0x70
.................... #define CHO_DEVICE_ID 0x80
.................... #define SATO_DEVICE_ID 0x90
.................... #define BHU_DEVICE_ID 0xB0
.................... #define CIGS_DEVICE_ID 0xC0
.................... 
.................... // ===== Data IDs from гғЎгғўгғӘгғһгғғгғ—  =====
.................... #define ID_MAIN_ADDRESS_AREA 0x10
.................... #define ID_MAIN_ADDRESS 0x11
.................... #define ID_MAIN_RESERVED_COMMAND 0x12
.................... #define ID_MAIN_HK 0x14
.................... #define ID_MAIN_HSHK 0x15
.................... #define ID_MAIN_LSHK 0x16
.................... #define ID_MAIN_PIC_LOG 0x1F
.................... #define ID_COM_RSSI_TRX_T_LOG 0x20
.................... #define ID_COM_PIC_LOG 0x2F
.................... #define ID_APRS_PIC_DATA_TABLE 0x60
.................... #define ID_APRS_APRS 0x61
.................... #define ID_APRS_IN_VEHICLE_COMMUNICATION_MISSION 0x62
.................... #define ID_APRS_TLE_DATA 0x63
.................... #define ID_APRS_ECOSYSTEM 0x67
.................... #define ID_APRS_PIC_LOG 0x6F
.................... #define ID_CAM_CHIBANY_THUMBNAIL_IMAGE_DATA_SIZE 0x70
.................... #define ID_CAM_CHIBANY_IMAGE_DATA_SIZE 0x71
.................... #define ID_CAM_CHIBANY_VIDEO_SIZE 0x72
.................... #define ID_CAM_POLLEN_THUMBNAIL_IMAGE_DATA_SIZE 0x73
.................... #define ID_CAM_POLEN_IMAGE_DATA_SIZE 0x74
.................... #define ID_CAM_POLLEN_VIDEO_DATA_SIZE 0x75
.................... #define ID_CAM_MCU_LOG_DATA_SIZE 0x7F
.................... #define ID_CHO_GREECE_THUMBNAIL_IMAGE_DATA_SIZE 0x80
.................... #define ID_CHO_GREECE_IMAGE_DATA_SIZE 0x81
.................... #define ID_CHO_SENSOR_DATA_SIZE 0x82
.................... #define ID_CHO_MCU_LOG_DATA_SIZE 0x8F
.................... #define ID_SATO_PIC_DATA_TABLE 0x90
.................... #define ID_SATO_CYCLE_MODE_DATA 0x91
.................... #define ID_SATO_RANDOM_MODE_DATA 0x92
.................... #define ID_SATO_MULTIPLE_POINT_MODE_DATA 0x93
.................... #define ID_SATO_VOLTAGE_SWEEP_MODE_DATA 0x94
.................... #define ID_SATO_PIC_LOG 0x9F
.................... #define ID_BHU_FOREST_THUMBNAIL_IMAGE_DATA_SIZE 0xB0
.................... #define ID_BHU_FOREST_IMAGE_DATA_SIZE 0xB1
.................... #define ID_BHU_SENSOR_DATA_DATA_SIZE 0xB2
.................... #define ID_BHU_MCU_LOG_DATA_SIZE 0xBF
.................... #define ID_CIGS_DATA_TABLE 0xC0
.................... #define ID_CIGS_MEASURE_DATA 0xC1
.................... #define ID_CIGS_PICLOG 0xCF
.................... 
.................... // ===== Memory Address Mappings from гғЎгғўгғӘгғһгғғгғ—  =====
.................... #define MAIN_ADDRESS_AREA_START_ADDRESS 0x00000000
.................... #define MAIN_ADDRESS_AREA_END_ADDRESS 0x00000FFF
.................... #define MAIN_ADDRESS_START_ADDRESS 0x00001000
.................... #define MAIN_ADDRESS_END_ADDRESS 0x00001FFF
.................... #define MAIN_RESERVED_COMMAND_START_ADDRESS 0x00002000
.................... #define MAIN_RESERVED_COMMAND_END_ADDRESS 0x00003FFF
.................... #define MAIN_HK_START_ADDRESS 0x00004000
.................... #define MAIN_HK_END_ADDRESS 0x02003FFF
.................... #define MAIN_HSHK_START_ADDRESS 0x02004000
.................... #define MAIN_HSHK_END_ADDRESS 0x02103FFF
.................... #define MAIN_LSHK_START_ADDRESS 0x02104000
.................... #define MAIN_LSHK_END_ADDRESS 0x02303FFF
.................... #define MAIN_PIC_LOG_START_ADDRESS 0x02304000
.................... #define MAIN_PIC_LOG_END_ADDRESS 0x0240FFFF
.................... #define COM_RSSI_TRX_T_LOG_START_ADDRESS 0x02800000
.................... #define COM_RSSI_TRX_T_LOG_END_ADDRESS 0x028FFFFF
.................... #define COM_PIC_LOG_START_ADDRESS 0x02900000
.................... #define COM_PIC_LOG_END_ADDRESS 0x029FFFFF
.................... #define APRS_PIC_DATA_TABLE_START_ADDRESS 0x02C00000
.................... #define APRS_PIC_DATA_TABLE_END_ADDRESS 0x02C00FFF
.................... #define APRS_APRS_START_ADDRESS 0x02C01000
.................... #define APRS_APRS_END_ADDRESS 0x02D00FFF
.................... #define APRS_IN_VEHICLE_COMMUNICATION_MISSION_START_ADDRESS 0x02D01000
.................... #define APRS_IN_VEHICLE_COMMUNICATION_MISSION_END_ADDRESS 0x02D01FFF
.................... #define APRS_TLE_DATA_START_ADDRESS 0x02D02000
.................... #define APRS_TLE_DATA_END_ADDRESS 0x02D02FFF
.................... #define APRS_ECOSYSTEM_START_ADDRESS 0x02D03000
.................... #define APRS_ECOSYSTEM_END_ADDRESS 0x02E02FFF
.................... #define APRS_PIC_LOG_START_ADDRESS 0x02E03000
.................... #define APRS_PIC_LOG_END_ADDRESS 0x02E03FFF
.................... #define CAM_CHIBANY_THUMBNAIL_IMAGE_DATA_SIZE_START_ADDRESS 0x02F10000
.................... #define CAM_CHIBANY_THUMBNAIL_IMAGE_DATA_SIZE_END_ADDRESS 0x02F10FFF
.................... #define CAM_CHIBANY_IMAGE_DATA_SIZE_START_ADDRESS 0x03311000
.................... #define CAM_CHIBANY_IMAGE_DATA_SIZE_END_ADDRESS 0x03311FFF
.................... #define CAM_CHIBANY_VIDEO_SIZE_START_ADDRESS 0x03712000
.................... #define CAM_CHIBANY_VIDEO_SIZE_END_ADDRESS 0x03712FFF
.................... #define CAM_POLLEN_THUMBNAIL_IMAGE_DATA_SIZE_START_ADDRESS 0x03B13000
.................... #define CAM_POLLEN_THUMBNAIL_IMAGE_DATA_SIZE_END_ADDRESS 0x03B13FFF
.................... #define CAM_POLEN_IMAGE_DATA_SIZE_START_ADDRESS 0x03F14000
.................... #define CAM_POLEN_IMAGE_DATA_SIZE_END_ADDRESS 0x03F14FFF
.................... #define CAM_POLLEN_VIDEO_DATA_SIZE_START_ADDRESS 0x04315000
.................... #define CAM_POLLEN_VIDEO_DATA_SIZE_END_ADDRESS 0x04315FFF
.................... #define CAM_MCU_LOG_DATA_SIZE_START_ADDRESS 0x04320000
.................... #define CAM_MCU_LOG_DATA_SIZE_END_ADDRESS 0x04320FFF
.................... #define CHO_GREECE_THUMBNAIL_IMAGE_DATA_SIZE_START_ADDRESS 0x04440000
.................... #define CHO_GREECE_THUMBNAIL_IMAGE_DATA_SIZE_END_ADDRESS 0x04440FFF
.................... #define CHO_GREECE_IMAGE_DATA_SIZE_START_ADDRESS 0x04451000
.................... #define CHO_GREECE_IMAGE_DATA_SIZE_END_ADDRESS 0x04451FFF
.................... #define CHO_SENSOR_DATA_SIZE_START_ADDRESS 0x04852000
.................... #define CHO_SENSOR_DATA_SIZE_END_ADDRESS 0x04852FFF
.................... #define CHO_MCU_LOG_DATA_SIZE_START_ADDRESS 0x04863000
.................... #define CHO_MCU_LOG_DATA_SIZE_END_ADDRESS 0x04863FFF
.................... #define SATO_PIC_DATA_TABLE_START_ADDRESS 0x04980000
.................... #define SATO_PIC_DATA_TABLE_END_ADDRESS 0x04980FFF
.................... #define SATO_CYCLE_MODE_DATA_START_ADDRESS 0x04981000
.................... #define SATO_CYCLE_MODE_DATA_END_ADDRESS 0x04A80FFF
.................... #define SATO_RANDOM_MODE_DATA_START_ADDRESS 0x04A81000
.................... #define SATO_RANDOM_MODE_DATA_END_ADDRESS 0x04E80FFF
.................... #define SATO_MULTIPLE_POINT_MODE_DATA_START_ADDRESS 0x04E81000
.................... #define SATO_MULTIPLE_POINT_MODE_DATA_END_ADDRESS 0x04F80FFF
.................... #define SATO_VOLTAGE_SWEEP_MODE_DATA_START_ADDRESS 0x04F81000
.................... #define SATO_VOLTAGE_SWEEP_MODE_DATA_END_ADDRESS 0x05080FFF
.................... #define SATO_PIC_LOG_START_ADDRESS 0x05081000
.................... #define SATO_PIC_LOG_END_ADDRESS 0x05081FFF
.................... #define BHU_FOREST_THUMBNAIL_IMAGE_DATA_SIZE_START_ADDRESS 0x05190000
.................... #define BHU_FOREST_THUMBNAIL_IMAGE_DATA_SIZE_END_ADDRESS 0x05190FFF
.................... #define BHU_FOREST_IMAGE_DATA_SIZE_START_ADDRESS 0x05591000
.................... #define BHU_FOREST_IMAGE_DATA_SIZE_END_ADDRESS 0x05591FFF
.................... #define BHU_SENSOR_DATA_DATA_SIZE_START_ADDRESS 0x05992000
.................... #define BHU_SENSOR_DATA_DATA_SIZE_END_ADDRESS 0x05992FFF
.................... #define BHU_MCU_LOG_DATA_SIZE_START_ADDRESS 0x06993000
.................... #define BHU_MCU_LOG_DATA_SIZE_END_ADDRESS 0x06993FFF
.................... #define CIGS_DATA_TABLE_START_ADDRESS 0x06AA0000
.................... #define CIGS_DATA_TABLE_END_ADDRESS 0x06AA0FFF
.................... #define CIGS_PICLOG_START_ADDRESS 0x06AA1000
.................... #define CIGS_PICLOG_END_ADDRESS 0x06AA1FFF
.................... #define CIGS_ENVIRO_START_ADDRESS 0x06AA2000
.................... #define CIGS_ENVIRO_END_ADDRESS 0x06AA2FFF
.................... #define CIGS_IV1_HEADER_START_ADDRESS 0x06B42000
.................... #define CIGS_IV1_HEADER_END_ADDRESS 0x06BE1FFF
.................... #define CIGS_IV1_DATA_START_ADDRESS 0x06BE2000
.................... #define CIGS_IV1_DATA_END_ADDRESS 0x06FE2FFF
.................... #define CIGS_IV2_HEADER_START_ADDRESS 0x06FE3000
.................... #define CIGS_IV2_HEADER_END_ADDRESS 0x07082FFF
.................... #define CIGS_IV2_DATA_START_ADDRESS 0x07083000
.................... #define CIGS_IV2_DATA_END_ADDRESS 0x07483FFF
.................... 
.................... #endif // SMF_MEMORY_MAP_H
.................... 
.................... 
.................... // гғ¬гғҷгғ«4: гғҮгғҗгӮӨгӮ№гғүгғ©гӮӨгғҗгғҳгғғгғҖгғј
.................... #include "../../lib/device/mt25q.h"
.................... #ifndef MT25Q_H
.................... #define MT25Q_H
.................... 
.................... // =========
.................... //#define MT25Q_DEBUG
.................... // =========
.................... 
.................... 
.................... #define FLASH_STREAM0 MIS_FM_STREAM     // <- Align the names to `config.h` Stream name
.................... #define FLASH_STREAM1 SMF_STREAM
.................... #define FLASH_STREAM2 SMF_STREAM // dont use
.................... #define FLASH_STREAM3 SMF_STREAM // dont use
.................... 
.................... typedef enum spi_stream{
....................     SPI_0,
....................     SPI_1,
....................     SPI_2,
....................     SPI_3,
.................... }SpiStreamId;
.................... 
.................... #define MT25QL128ABA 0x00     //Mission Flash
.................... #define MT25QL01GBBB 0x01     //SMF,CF
.................... typedef struct select_stream_to_flash{
....................     SpiStreamId spi_stream_id;
....................     unsigned int8 flash_model;
....................     int16 cs_pin;
.................... }Flash;
.................... 
.................... 
.................... Flash mis_fm = {SPI_0, MT25QL128ABA, MIS_FM_CS};
.................... Flash smf = {SPI_1, MT25QL01GBBB, SMF_CS};
.................... 
.................... 
.................... 
.................... // ===================== Function List =====================
.................... // Public Functions
.................... 
.................... int1 is_connect(Flash flash_stream);
.................... 
.................... void write_data_bytes(Flash flash_stream, unsigned int32 write_start_address, int8 *write_data, unsigned int16 write_amount);      
.................... 
.................... void read_data_bytes(Flash flash_stream, unsigned int32 read_start_address, int8 *read_data, unsigned int32 read_amount);  
.................... 
.................... void sector_erase(Flash flash_stream, unsigned int32 sector_address);
.................... 
.................... void subsector_32kByte_erase(Flash flash_stream, unsigned int32 subsector_address);  
....................                                
.................... void subsector_4kByte_erase(Flash flash_stream, unsigned int32 subsector_address);      
.................... 
.................... //Private Functions
....................  
.................... void flash_setting(Flash flash_stream);
....................  
.................... int8 status_register(Flash flash_stream);
....................  
.................... int8 read_id(Flash flash_stream);
....................  
.................... int8 read_data_byte(Flash flash_stream, unsigned int32 read_address);                                               
....................  
.................... void write_data_byte(Flash flash_stream, unsigned int32 write_address,int8 write_data);                             
....................         //
.................... 
.................... 
.................... // ===================== Flash Commands =====================
.................... #define CMD_READ_ID                     0x9F
.................... #define CMD_READ_STATUS_REGISTER        0x05
.................... #define CMD_READ                        0x03//for MT25QL128ABA
.................... #define CMD_4BYTE_READ                  0x13//for MT25QL01GBBB
.................... #define CMD_WRITE_ENABLE                0x06
.................... #define CMD_PAGE_PROGRAM                0x02//for MT25QL128ABA
.................... #define CMD_4BYTE_PAGE_PROGRAM          0x12//for MT25QL01GBBB
.................... #define CMD_SUBSECTOR_4KB_ERASE         0x20//for MT25QL128ABA
.................... #define CMD_4BYTE_SUBSECTOR_4KB_ERASE   0x21//for MT25QL01GBBB
.................... #define CMD_SUBSECTOR_32KB_ERASE        0x52//for MT25QL128ABA
.................... #define CMD_4BYTE_SUBSECTOR_32KB_ERASE  0x5C//for MT25QL01GBBB
.................... #define CMD_SECTOR_ERASE                0xD8//for MT25QL128ABA
.................... #define CMD_4BYTE_SECTOR_ERASE          0xDC//for MT25QL01GBBB
.................... 
.................... // ====================== Value List =====================
.................... #define MANUFACTURER_ID_MICRON 0x20 // Manufacturer ID for Micron flash
.................... #define READ_ID_DATASIZE 20 // 20 bytes for read ID data
.................... 
.................... 
.................... // ====================== Data Structures =====================
.................... typedef union
.................... {
....................     unsigned int8 bytes[READ_ID_DATASIZE]; // 20 bytes for read ID
....................     struct {
....................         unsigned int8 manufacturer_id; // 1 byte
....................         unsigned int8 memory_type;     // 1 byte
....................         unsigned int8 capacity;        // 1 byte
....................         unsigned int8 reserved;       // 1 byte
....................     } fields;
.................... }READ_ID_DATA;
.................... 
.................... 
.................... #endif
.................... 
.................... 
.................... 
.................... // #include "../../lib/device/ad7490.h"
.................... // #include "../../lib/device/mcp4901.h"
.................... 
.................... // гғ¬гғҷгғ«5: йҖҡдҝЎгғ©гӮӨгғ–гғ©гғӘгғҳгғғгғҖгғј
.................... #include "../../lib/communication/communication.h"
.................... #ifndef COMMUNICATION_H
.................... #define COMMUNICATION_H
.................... 
.................... // __________ device IDs ______________
.................... 
.................... #define GS        0x00
.................... #define MAIN_PIC  0x01
.................... #define COM_PIC   0x02
.................... #define RESET_PIC 0x03
.................... #define FAB_PIC   0x04
.................... #define BOSS_PIC  0x05
.................... #define APRS_PIC  0x06
.................... #define CAM_MCU   0x07
.................... #define CHO_MCU   0x08
.................... #define NAKA_PIC  0x09
.................... #define SATO_PIC  0x0A
.................... #define BHU_MCU   0x0B
.................... #define CIGS_PIC  0x0C
.................... 
....................  // <- change to your device name
.................... 
.................... 
.................... 
.................... 
.................... 
.................... 
.................... 
.................... 
.................... 
.................... 
.................... 
.................... 
.................... // ____________ SFD ______________
.................... 
.................... #define SFD 0xAA
.................... 
.................... 
.................... // ____________ typedef _____________
.................... 
.................... typedef struct {
....................     int8 id;
....................     int8 length;
.................... } FrameID;
.................... 
.................... #define CONTENT_MAX 9
.................... typedef struct {
....................     int8 frame_id;
....................     unsigned int8 size;
....................     int1 is_exist;
....................     unsigned int8 content[CONTENT_MAX];
.................... } Command;
.................... 
.................... #include "frame.h"
.................... #ifndef FRAME_CONTENT_H
.................... #define FRAME_CONTENT_H
.................... 
.................... 
.................... // __________ Receives _________
.................... 
.................... #define UPLINK_COMMAND        0x00
.................... #define STATUS_CHECK          0x01
.................... #define IS_SMF_AVAILABLE      0x02
.................... 
.................... #define UPLINK_COMMAND_LENGTH     9
.................... #define STATUS_CHECK_LENGTH       0
.................... #define IS_SMF_AVAILABLE_LENGTH   1
.................... 
.................... volatile FrameID frame_ids[] = {
....................    {UPLINK_COMMAND, UPLINK_COMMAND_LENGTH}, 
....................    {STATUS_CHECK, STATUS_CHECK_LENGTH}, 
....................    {IS_SMF_AVAILABLE, IS_SMF_AVAILABLE_LENGTH}
.................... };
.................... 
.................... 
.................... // __________ Transmits _____________
.................... 
.................... typedef enum {
....................    MIS_MCU_STATUS = 0x03,
....................    ACK = 0x0F
.................... } TransmitFrameId;
.................... 
.................... #endif
.................... 
.................... 
.................... 
.................... // ______ Receive _______
.................... 
.................... Command make_receive_command(unsigned int8 receive_signal[], int8 receive_signal_size);
.................... 
.................... static int8 trim_receive_signal_header(unsigned int8 receive_signal[], int8 receive_signal_size);
.................... 
.................... static int8 get_content_size(unsigned int8 frame_id);
.................... 
.................... static int1 check_crc(unsigned int8 frame[], int8 receive_frame_size);
.................... 
.................... static int1 check_device_id(unsigned int8 device_id);
.................... 
.................... 
.................... // ______ Transmit _______
.................... 
.................... void transmit_command(TransmitFrameId frame_id, unsigned int8 content[], int8 size);
.................... 
.................... static void transmit(unsigned int8 data[], int8 data_size);
.................... 
.................... // ______ Common _________
.................... 
.................... 
.................... #endif
.................... 
.................... 
.................... #include "../../lib/communication/communication_driver.h"
.................... #ifndef COMMUNICATION_DRIVER_H
.................... #define COMMUNICATION_DRIVER_H
.................... 
.................... #include "communication.h"
.................... #ifndef COMMUNICATION_H
.................... #define COMMUNICATION_H
.................... 
.................... // __________ device IDs ______________
.................... 
.................... #define GS        0x00
.................... #define MAIN_PIC  0x01
.................... #define COM_PIC   0x02
.................... #define RESET_PIC 0x03
.................... #define FAB_PIC   0x04
.................... #define BOSS_PIC  0x05
.................... #define APRS_PIC  0x06
.................... #define CAM_MCU   0x07
.................... #define CHO_MCU   0x08
.................... #define NAKA_PIC  0x09
.................... #define SATO_PIC  0x0A
.................... #define BHU_MCU   0x0B
.................... #define CIGS_PIC  0x0C
.................... 
....................  // <- change to your device name
.................... 
.................... 
.................... 
.................... 
.................... 
.................... 
.................... 
.................... 
.................... 
.................... 
.................... 
.................... 
.................... // ____________ SFD ______________
.................... 
.................... #define SFD 0xAA
.................... 
.................... 
.................... // ____________ typedef _____________
.................... 
.................... typedef struct {
....................     int8 id;
....................     int8 length;
.................... } FrameID;
.................... 
.................... #define CONTENT_MAX 9
.................... typedef struct {
....................     int8 frame_id;
....................     unsigned int8 size;
....................     int1 is_exist;
....................     unsigned int8 content[CONTENT_MAX];
.................... } Command;
.................... 
.................... #include "frame.h"
.................... 
.................... // ______ Receive _______
.................... 
.................... Command make_receive_command(unsigned int8 receive_signal[], int8 receive_signal_size);
.................... 
.................... static int8 trim_receive_signal_header(unsigned int8 receive_signal[], int8 receive_signal_size);
.................... 
.................... static int8 get_content_size(unsigned int8 frame_id);
.................... 
.................... static int1 check_crc(unsigned int8 frame[], int8 receive_frame_size);
.................... 
.................... static int1 check_device_id(unsigned int8 device_id);
.................... 
.................... 
.................... // ______ Transmit _______
.................... 
.................... void transmit_command(TransmitFrameId frame_id, unsigned int8 content[], int8 size);
.................... 
.................... static void transmit(unsigned int8 data[], int8 data_size);
.................... 
.................... // ______ Common _________
.................... 
.................... 
.................... #endif
.................... 
.................... 
.................... 
.................... 
.................... // This is redundant, but it is a process to hide the Communication library as a driver.
.................... Command make_command(unsigned int8 receive_signal[], int8 receive_signal_size);
.................... 
.................... void transmit_ack(void);
.................... void transmit_status(void);
.................... 
.................... 
.................... 
.................... #endif
.................... 
.................... 
.................... #include "../../lib/communication/mission_tools.h"
.................... #ifndef MISSION_TOOLS_H
.................... #define MISSION_TOOLS_H
.................... 
.................... #include "communication_driver.h"
.................... #ifndef COMMUNICATION_DRIVER_H
.................... #define COMMUNICATION_DRIVER_H
.................... 
.................... #include "communication.h"
.................... 
.................... 
.................... // This is redundant, but it is a process to hide the Communication library as a driver.
.................... Command make_command(unsigned int8 receive_signal[], int8 receive_signal_size);
.................... 
.................... void transmit_ack(void);
.................... void transmit_status(void);
.................... 
.................... 
.................... 
.................... #endif
.................... 
.................... 
.................... 
.................... 
.................... // ________________ fuctions ____________
.................... 
.................... // Check and reply to messages received from BOSS PIC
.................... void check_and_respond_to_boss();
.................... 
.................... // Request using SMF to BOSS PIC
.................... // !!!After use, you must call `void finished_use_smf()`
.................... int1 req_use_smf();
.................... 
.................... // Call after using SMF
.................... void finished_use_smf();
.................... //unsigned int8 calc_crc8(unsigned int8 frame[], int8 payload_size);
.................... 
.................... 
.................... #endif
.................... 
.................... 
.................... 
.................... // гғ¬гғҷгғ«6: гӮігӮўж©ҹиғҪгғҳгғғгғҖгғј
.................... #include "../core/measurement/son_tmp_strain.h"
.................... #ifndef son_tmp_strain_H
.................... #define son_tmp_strain_H
.................... 
.................... #include <stdint.h>
.................... ///////////////////////////////////////////////////////////////////////////
.................... ////                                                                   ////
.................... ////                           stdint.h                                ////
.................... ////                                                                   ////
.................... //// Standard integer definitions.                                     ////
.................... ////                                                                   ////
.................... ///////////////////////////////////////////////////////////////////////////
.................... ////        (C) Copyright 1996,2008 Custom Computer Services           ////
.................... //// This source code may only be used by licensed users of the CCS C  ////
.................... //// compiler.  This source code may only be distributed to other      ////
.................... //// licensed users of the CCS C compiler.  No other use, reproduction ////
.................... //// or distribution is permitted without written permission.          ////
.................... //// Derivative programs created using this software in object code    ////
.................... //// form are not restricted in any way.                               ////
.................... ///////////////////////////////////////////////////////////////////////////
.................... 
.................... #ifndef _STDINT
.................... 
.................... #define _STDINT
.................... 
.................... //////////// exact width
.................... 
.................... typedef signed int8 int8_t;
.................... typedef unsigned int8 uint8_t;
.................... typedef signed int16 int16_t;
.................... typedef unsigned int16 uint16_t;
.................... typedef signed int32 int32_t;
.................... typedef unsigned int32 uint32_t;
.................... 
.................... #if defined(__PCD__)
.................... //typedef signed int24 int24_t;
.................... //typedef unsigned int24 uint24_t;
.................... typedef signed int64 int64_t;
.................... typedef unsigned int64 uint64_t;
.................... #endif
.................... 
.................... #define INT8_MAX  (127)
.................... #define INT8_MIN  (-128)
.................... #define UINT8_MAX (255)
.................... 
.................... #define INT16_MAX  (32767)
.................... #define INT16_MIN  (-32768)
.................... #define UINT16_MAX (65535)
.................... 
.................... #define INT32_MAX  (2147483647)
.................... #define INT32_MIN  (-2147483648)
.................... #define UINT32_MAX (4294967295)
.................... 
.................... #if defined(__PCD__)
.................... //#define INT24_MAX  (8388607)
.................... //#define INT24_MIN  (-8388608)
.................... //#define UINT24_MAX (16777215)
.................... 
.................... #define INT64_MAX  (9223372036854775807)
.................... #define INT64_MIN  (-9223372036854775808)
.................... #define UINT64_MAX (18446744073709551615)
.................... #endif
.................... 
.................... ///////// minimum width
.................... 
.................... typedef signed int8 int_least8_t;
.................... typedef unsigned int8 uint_least8_t;
.................... typedef signed int16 int_least16_t;
.................... typedef unsigned int16 uint_least16_t;
.................... typedef signed int32 int_least32_t;
.................... typedef unsigned int32 uint_least32_t;
.................... 
.................... #if defined(__PCD__)
.................... //typedef signed int24 int_least24_t;
.................... //typedef unsigned int24 uint_least24_t;
.................... typedef signed int64 int_least64_t;
.................... typedef unsigned int64 uint_least64_t;
.................... #endif
.................... 
.................... #define INT_LEAST8_MAX  (127)
.................... #define INT_LEAST8_MIN  (-128)
.................... #define UINT_LEAST8_MAX (255)
.................... 
.................... #define INT_LEAST16_MAX  (32767)
.................... #define INT_LEAST16_MIN  (-32768)
.................... #define UINT_LEAST16_MAX (65535)
.................... 
.................... #define INT_LEAST32_MAX  (2147483647)
.................... #define INT_LEAST32_MIN  (-2147483648)
.................... #define UINT_LEAST32_MAX (4294967295)
.................... 
.................... #if defined(__PCD__)
.................... //#define INT_LEAST24_MAX  (8388607)
.................... //#define INT_LEAST24_MIN  (-8388608)
.................... //#define UINT_LEAST24_MAX (16777215)
.................... 
.................... #define INT_LEAST64_MAX  (9223372036854775807)
.................... #define INT_LEAST64_MIN  (-9223372036854775808)
.................... #define UINT_LEAST64_MAX (18446744073709551615)
.................... #endif
.................... 
.................... ///////// fastest width
.................... 
.................... #if defined(__PCD__)
.................... typedef signed int16 int_fast8_t;
.................... typedef unsigned int16 uint_fast8_t;
.................... #define INT_FAST8_MAX  (32767)
.................... #define INT_FAST8_MIN  (-32768)
.................... #define UINT_FAST8_MAX (65535)
.................... typedef signed int16 int_fast16_t;
.................... typedef unsigned int16 uint_fast16_t;
.................... //typedef signed int24 int_fast24_t;
.................... //typedef unsigned int24 uint_fast24_t;
.................... typedef signed int64 int_fast64_t;
.................... typedef unsigned int64 uint_fast64_t;
.................... #else
.................... typedef signed int8 int_fast8_t;
.................... typedef unsigned int8 uint_fast8_t;
.................... #define INT_FAST8_MAX  (127)
.................... #define INT_FAST8_MIN  (-128)
.................... #define UINT_FAST8_MAX (255)
.................... typedef signed int16 int_fast16_t;
.................... typedef unsigned int16 uint_fast16_t;
.................... #endif
.................... 
.................... typedef signed int32 int_fast32_t;
.................... typedef unsigned int32 uint_fast32_t;
.................... 
.................... #define INT_FAST16_MAX  (32767)
.................... #define INT_FAST16_MIN  (-32768)
.................... #define UINT_FAST16_MAX (65535)
.................... 
.................... #define INT_FAST32_MAX  (2147483647)
.................... #define INT_FAST32_MIN  (-2147483648)
.................... #define UINT_FAST32_MAX (4294967295)
.................... 
.................... #if defined(__PCD__)
.................... //#define INT_FAST24_MAX  (8388607)
.................... //#define INT_FAST24_MIN  (-8388608)
.................... //#define UINT_FAST24_MAX (16777215)
.................... 
.................... #define INT_FAST64_MAX  (9223372036854775807)
.................... #define INT_FAST64_MIN  (-9223372036854775808)
.................... #define UINT_FAST64_MAX (18446744073709551615)
.................... #endif
.................... 
.................... //////////// big enough to hold pointers (OPTIONAL)
.................... 
.................... #if defined(__PCD__)
....................    typedef unsigned int32 uintptr_t;
....................    typedef signed int32 intptr_t;
.................... #else
....................    typedef unsigned int16 uintptr_t;
....................    typedef signed int16 intptr_t;
.................... #endif
.................... 
.................... #define INT8_C(val) ((int8_t)val)
.................... #define UINT8_C(val) ((uint8_t)val)
.................... #define INT16_C(val) ((int16_t)val)
.................... #define UINT16_C(val) ((uint16_t)val)
.................... #define INT32_C(val) ((int32_t)val)
.................... #define UINT32_C(val) ((uint32_t)val)
.................... 
.................... #if defined(__PCD__)
.................... #define INT64_C(val) ((int64_t)val)
.................... #define UINT64_C(val) ((uint64_t)val)
.................... #endif
.................... 
.................... /// TODO:
.................... /// INTPTRN_MIN INTPTRN_MAX UINTPTRN_MAX
.................... 
.................... 
.................... /////////// greatest width (OPTIONAL)
.................... 
.................... #ifdef __PCD__
....................    typedef signed int64 intmax_t;
....................    typedef unsigned int64 uintmax_t;
....................    
....................    #define INTMAXN_MAX  (9223372036854775807)
....................    #define INTMAXN_MIN  (-9223372036854775808)
....................    #define UINTMAXN_MAX (18446744073709551615)
....................    
....................    #define INTMAX_C(value) ((signed int64)val)
....................    #define UINTMAX_C(value) ((unsigned int64)val)
.................... #else
....................    typedef signed int32 intmax_t;
....................    typedef unsigned int32 uintmax_t;
....................    
....................    #define INTMAXN_MAX  (2147483647)
....................    #define INTMAXN_MIN  (-2147483648)
....................    #define UINTMAXN_MAX (4294967295)
....................    
....................    #define INTMAX_C(value) ((signed int32)val)
....................    #define UINTMAX_C(value) ((unsigned int32)val)
.................... #endif
.................... 
.................... 
.................... #endif
.................... 
.................... 
.................... #include <stdbool.h>
.................... ///////////////////////////////////////////////////////////////////////////
.................... ////                                                                   ////
.................... ////                          stdbool.h                                ////
.................... ////                                                                   ////
.................... //// Standard boolean definitions                                      ////
.................... ////                                                                   ////
.................... ///////////////////////////////////////////////////////////////////////////
.................... ////        (C) Copyright 1996,2012 Custom Computer Services           ////
.................... //// This source code may only be used by licensed users of the CCS C  ////
.................... //// compiler.  This source code may only be distributed to other      ////
.................... //// licensed users of the CCS C compiler.  No other use, reproduction ////
.................... //// or distribution is permitted without written permission.          ////
.................... //// Derivative programs created using this software in object code    ////
.................... //// form are not restricted in any way.                               ////
.................... ///////////////////////////////////////////////////////////////////////////
.................... 
.................... #ifndef __STDBOOL_H__
.................... #define __STDBOOL_H__
.................... 
.................... #if !getenv("CASE")
....................    // remove TRUE and FALSE added by CCS's device .h file, only if
....................    // compiler has case sensitivty off.
.................... 
....................    #if defined(TRUE)
....................       #undef TRUE
....................    #endif
....................    
....................    #if defined(FALSE)
....................       #undef FALSE
....................    #endif
.................... #endif
.................... 
.................... typedef int1   bool;
.................... #define true   1
.................... #define false  0
.................... #define __bool_true_false_are_defined  1
.................... 
.................... #endif
.................... 
.................... #include "../../system/son_tmp_config.h"
.................... #ifndef son_tmp_CONFIG_H
.................... #define son_tmp_CONFIG_H
.................... 
.................... #define SELF_DEVICE_ID CIGS_PIC
.................... 
.................... #include <18F67J94.h>
.................... #opt 0 // 0 = no optimization
.................... 
.................... #use delay(crystal=16MHz)
.................... #fuses HS, NOWDT, NOBROWNOUT, NOPROTECT
.................... 
.................... #define PIC18
.................... 
.................... #ifdef PIC18
....................     // ==========================================
....................     // 1. гғҸгғјгғүгӮҰгӮ§гӮўж§ӢжҲҗгҒЁгғ”гғігӮўгӮөгӮӨгғі
....................     // ==========================================
.................... 
....................     #define PIN_LDO_EN          PIN_E1
....................     #define PIN_VREF_EN         PIN_E0
....................     #define PIN_LED1            PIN_A5
....................     #define PIN_LED2            PIN_A1
.................... 
....................     #define PIN_SW_DIO1         PIN_C1
....................     #define PIN_SW_DIO0         PIN_C2
.................... 
....................     // SPI Chip Select (BOSSгғҳгғғгғҖеҗҚз§°гҒ«йҒ©еҗҲ)
....................     #define MIS_FM_CS           PIN_B1
....................     #define SMF_CS              PIN_D4
....................     #define PIN_CS_ADC          PIN_B3
.................... 
.................... // ------------------------------------------
....................     // UART йҖҡдҝЎиЁӯе®ҡ (еј·еҲ¶гӮҪгғ•гғҲгӮҰгӮ§гӮўеҲ¶еҫЎ)
....................     // ------------------------------------------
....................     #use rs232(baud=9600, parity=N, xmit=PIN_G0, bits=8, stream=PC, FORCE_SW, ERRORS)
....................     #use rs232(baud=9600, parity=N, xmit=PIN_D1, rcv=PIN_D0, bits=8, stream=BOSS, FORCE_SW, ERRORS)
.................... 
....................     // ------------------------------------------
....................     // SPI йҖҡдҝЎиЁӯе®ҡ (еј·еҲ¶гӮҪгғ•гғҲгӮҰгӮ§гӮўеҲ¶еҫЎ)
....................     // ------------------------------------------
....................     #use spi(MASTER, BAUD=1000000, MODE=0, BITS=8, DI=PIN_B5, DO=PIN_B4, CLK=PIN_B2, stream=MIS_FM_STREAM, FORCE_SW)
....................     #use spi(MASTER, BAUD=1000000, MODE=0, BITS=8, DI=PIN_D6, DO=PIN_D7, CLK=PIN_D5, stream=SMF_STREAM, FORCE_SW)
.................... 
.................... #endif
.................... 
.................... // ==========================================
.................... // 2. гӮ·гӮ№гғҶгғ гӮ·гғјгӮұгғігӮ№ гӮігғһгғігғүе®ҡзҫ©
.................... // ==========================================
.................... #define CMD_MISSION_START       0x10
.................... #define RES_MISSION_DONE        0x11
.................... #define CMD_SMF_PREPARE         0x20
.................... #define REQ_SMF_COPY            0x21
.................... #define CMD_SMF_PERMIT          0x22
.................... #define REQ_POWER_OFF           0x30
.................... 
.................... // ==========================================
.................... // 3. гғҮгғјгӮҝгғ•гӮ©гғјгғһгғғгғҲгғ»гғҗгғғгғ•гӮЎе®ҡзҫ©
.................... // ==========================================
.................... #define PACKET_SIZE             64
.................... #define FLASH_PAGE_SIZE         256
.................... #define PACKETS_PER_PAGE        4
.................... #define SMF_TRANSFER_PACKETS    15
.................... 
.................... // гғҳгғғгғҖгғјж§ӢйҖ дҪ“ (8Byte)
.................... typedef struct
.................... {
....................     unsigned int32 timestamp;      // 4 Byte
....................     unsigned int8  mode : 3;       // 3 bit
....................     unsigned int8  channel : 1;    // 1 bit
....................     unsigned int8  samplingRate : 4; // 4 bit
....................     unsigned int16 dataCount;      // 12bitгҒ§гҒҜгҒӘгҒҸ16bit(2Byte)гҒ§зўәдҝқгҒ—гӮЁгғ©гғјгӮ’еӣһйҒҝ
....................     unsigned int8  zeroFill;       // 1 Byte (еҗҲиЁҲ8ByteгҒ«гҒҷгӮӢгҒҹгӮҒ)
.................... } PacketHeader;
.................... 
.................... typedef struct
.................... {
....................     PacketHeader header;           // 8 Byte
....................     unsigned int8 packetNum;       // 1 Byte
....................     unsigned int16 adcData[27];    // 54 Byte
....................     unsigned int8 crc8;            // 1 Byte
.................... } FirstPacket;
.................... 
.................... typedef struct
.................... {
....................     unsigned int8 packetNum;       // 1 Byte
....................     unsigned int16 adcData[31];    // 62 Byte
....................     unsigned int8 crc8;            // 1 Byte
.................... } SubsequentPacket;
.................... 
.................... typedef union
.................... {
....................     unsigned int8 raw[PACKET_SIZE];
....................     FirstPacket first;
....................     SubsequentPacket sub;
.................... } PacketBuffer;
.................... 
.................... #endif // son_tmp_CONFIG_H
.................... 
.................... 
.................... // ============================================================================
.................... // еӨ–йғЁе…¬й–Ӣй–ўж•°гғ—гғӯгғҲгӮҝгӮӨгғ—
.................... // ============================================================================
.................... 
.................... // гғҡгғӘгғ•гӮ§гғ©гғ«гҒ®еҲқжңҹеҢ– (гғ”гғігҒ®еҮәеҠӣиЁӯе®ҡгҒӘгҒ©)
.................... void io_init(void);
.................... 
.................... // гӮўгғҠгғӯгӮ°гӮ№гӮӨгғғгғҒгҒ®еҲҮгӮҠжӣҝгҒҲ (0гҖң3гғҒгғЈгғігғҚгғ«)
.................... void switch_channel(uint8_t ch);
.................... 
.................... // LTC2452гҒӢгӮү16bitгҒ®ADCеҖӨгӮ’иӘӯгҒҝеҸ–гӮӢ
.................... uint16_t read_adc_ltc2452(void);
.................... 
.................... // иЁҲжё¬гӮ·гғјгӮұгғігӮ№гҒ®е®ҹиЎҢгҒЁFlashгҒёгҒ®дҝқеӯҳ (IVгғҮгғјгӮҝ пјӢ жё©еәҰгғҮгғјгӮҝгӮ’йҖЈз¶ҡе®ҹиЎҢ)
.................... // mode: еӢ•дҪңгғўгғјгғү
.................... // channel: жё¬е®ҡгғҒгғЈгғігғҚгғ« (MAX4734EUB+ гҒ®йҒёжҠһ)
.................... // samplingRate: гӮөгғігғ—гғӘгғігӮ°гғ¬гғјгғҲиЁӯе®ҡеҖӨ
.................... void execute_measurement(uint8_t mode, uint8_t channel, uint8_t samplingRate);
.................... 
.................... #endif // son_tmp_strain_H
.................... 
.................... #include "../core/measurement/son_tmp_temp.h"
.................... #ifndef son_tmp_TEMP_H
.................... #define son_tmp_TEMP_H
.................... 
.................... #include <stdint.h>
.................... ///////////////////////////////////////////////////////////////////////////
.................... ////                                                                   ////
.................... ////                           stdint.h                                ////
.................... ////                                                                   ////
.................... //// Standard integer definitions.                                     ////
.................... ////                                                                   ////
.................... ///////////////////////////////////////////////////////////////////////////
.................... ////        (C) Copyright 1996,2008 Custom Computer Services           ////
.................... //// This source code may only be used by licensed users of the CCS C  ////
.................... //// compiler.  This source code may only be distributed to other      ////
.................... //// licensed users of the CCS C compiler.  No other use, reproduction ////
.................... //// or distribution is permitted without written permission.          ////
.................... //// Derivative programs created using this software in object code    ////
.................... //// form are not restricted in any way.                               ////
.................... ///////////////////////////////////////////////////////////////////////////
.................... 
.................... #ifndef _STDINT
.................... 
.................... #define _STDINT
.................... 
.................... //////////// exact width
.................... 
.................... typedef signed int8 int8_t;
.................... typedef unsigned int8 uint8_t;
.................... typedef signed int16 int16_t;
.................... typedef unsigned int16 uint16_t;
.................... typedef signed int32 int32_t;
.................... typedef unsigned int32 uint32_t;
.................... 
.................... #if defined(__PCD__)
.................... //typedef signed int24 int24_t;
.................... //typedef unsigned int24 uint24_t;
.................... typedef signed int64 int64_t;
.................... typedef unsigned int64 uint64_t;
.................... #endif
.................... 
.................... #define INT8_MAX  (127)
.................... #define INT8_MIN  (-128)
.................... #define UINT8_MAX (255)
.................... 
.................... #define INT16_MAX  (32767)
.................... #define INT16_MIN  (-32768)
.................... #define UINT16_MAX (65535)
.................... 
.................... #define INT32_MAX  (2147483647)
.................... #define INT32_MIN  (-2147483648)
.................... #define UINT32_MAX (4294967295)
.................... 
.................... #if defined(__PCD__)
.................... //#define INT24_MAX  (8388607)
.................... //#define INT24_MIN  (-8388608)
.................... //#define UINT24_MAX (16777215)
.................... 
.................... #define INT64_MAX  (9223372036854775807)
.................... #define INT64_MIN  (-9223372036854775808)
.................... #define UINT64_MAX (18446744073709551615)
.................... #endif
.................... 
.................... ///////// minimum width
.................... 
.................... typedef signed int8 int_least8_t;
.................... typedef unsigned int8 uint_least8_t;
.................... typedef signed int16 int_least16_t;
.................... typedef unsigned int16 uint_least16_t;
.................... typedef signed int32 int_least32_t;
.................... typedef unsigned int32 uint_least32_t;
.................... 
.................... #if defined(__PCD__)
.................... //typedef signed int24 int_least24_t;
.................... //typedef unsigned int24 uint_least24_t;
.................... typedef signed int64 int_least64_t;
.................... typedef unsigned int64 uint_least64_t;
.................... #endif
.................... 
.................... #define INT_LEAST8_MAX  (127)
.................... #define INT_LEAST8_MIN  (-128)
.................... #define UINT_LEAST8_MAX (255)
.................... 
.................... #define INT_LEAST16_MAX  (32767)
.................... #define INT_LEAST16_MIN  (-32768)
.................... #define UINT_LEAST16_MAX (65535)
.................... 
.................... #define INT_LEAST32_MAX  (2147483647)
.................... #define INT_LEAST32_MIN  (-2147483648)
.................... #define UINT_LEAST32_MAX (4294967295)
.................... 
.................... #if defined(__PCD__)
.................... //#define INT_LEAST24_MAX  (8388607)
.................... //#define INT_LEAST24_MIN  (-8388608)
.................... //#define UINT_LEAST24_MAX (16777215)
.................... 
.................... #define INT_LEAST64_MAX  (9223372036854775807)
.................... #define INT_LEAST64_MIN  (-9223372036854775808)
.................... #define UINT_LEAST64_MAX (18446744073709551615)
.................... #endif
.................... 
.................... ///////// fastest width
.................... 
.................... #if defined(__PCD__)
.................... typedef signed int16 int_fast8_t;
.................... typedef unsigned int16 uint_fast8_t;
.................... #define INT_FAST8_MAX  (32767)
.................... #define INT_FAST8_MIN  (-32768)
.................... #define UINT_FAST8_MAX (65535)
.................... typedef signed int16 int_fast16_t;
.................... typedef unsigned int16 uint_fast16_t;
.................... //typedef signed int24 int_fast24_t;
.................... //typedef unsigned int24 uint_fast24_t;
.................... typedef signed int64 int_fast64_t;
.................... typedef unsigned int64 uint_fast64_t;
.................... #else
.................... typedef signed int8 int_fast8_t;
.................... typedef unsigned int8 uint_fast8_t;
.................... #define INT_FAST8_MAX  (127)
.................... #define INT_FAST8_MIN  (-128)
.................... #define UINT_FAST8_MAX (255)
.................... typedef signed int16 int_fast16_t;
.................... typedef unsigned int16 uint_fast16_t;
.................... #endif
.................... 
.................... typedef signed int32 int_fast32_t;
.................... typedef unsigned int32 uint_fast32_t;
.................... 
.................... #define INT_FAST16_MAX  (32767)
.................... #define INT_FAST16_MIN  (-32768)
.................... #define UINT_FAST16_MAX (65535)
.................... 
.................... #define INT_FAST32_MAX  (2147483647)
.................... #define INT_FAST32_MIN  (-2147483648)
.................... #define UINT_FAST32_MAX (4294967295)
.................... 
.................... #if defined(__PCD__)
.................... //#define INT_FAST24_MAX  (8388607)
.................... //#define INT_FAST24_MIN  (-8388608)
.................... //#define UINT_FAST24_MAX (16777215)
.................... 
.................... #define INT_FAST64_MAX  (9223372036854775807)
.................... #define INT_FAST64_MIN  (-9223372036854775808)
.................... #define UINT_FAST64_MAX (18446744073709551615)
.................... #endif
.................... 
.................... //////////// big enough to hold pointers (OPTIONAL)
.................... 
.................... #if defined(__PCD__)
....................    typedef unsigned int32 uintptr_t;
....................    typedef signed int32 intptr_t;
.................... #else
....................    typedef unsigned int16 uintptr_t;
....................    typedef signed int16 intptr_t;
.................... #endif
.................... 
.................... #define INT8_C(val) ((int8_t)val)
.................... #define UINT8_C(val) ((uint8_t)val)
.................... #define INT16_C(val) ((int16_t)val)
.................... #define UINT16_C(val) ((uint16_t)val)
.................... #define INT32_C(val) ((int32_t)val)
.................... #define UINT32_C(val) ((uint32_t)val)
.................... 
.................... #if defined(__PCD__)
.................... #define INT64_C(val) ((int64_t)val)
.................... #define UINT64_C(val) ((uint64_t)val)
.................... #endif
.................... 
.................... /// TODO:
.................... /// INTPTRN_MIN INTPTRN_MAX UINTPTRN_MAX
.................... 
.................... 
.................... /////////// greatest width (OPTIONAL)
.................... 
.................... #ifdef __PCD__
....................    typedef signed int64 intmax_t;
....................    typedef unsigned int64 uintmax_t;
....................    
....................    #define INTMAXN_MAX  (9223372036854775807)
....................    #define INTMAXN_MIN  (-9223372036854775808)
....................    #define UINTMAXN_MAX (18446744073709551615)
....................    
....................    #define INTMAX_C(value) ((signed int64)val)
....................    #define UINTMAX_C(value) ((unsigned int64)val)
.................... #else
....................    typedef signed int32 intmax_t;
....................    typedef unsigned int32 uintmax_t;
....................    
....................    #define INTMAXN_MAX  (2147483647)
....................    #define INTMAXN_MIN  (-2147483648)
....................    #define UINTMAXN_MAX (4294967295)
....................    
....................    #define INTMAX_C(value) ((signed int32)val)
....................    #define UINTMAX_C(value) ((unsigned int32)val)
.................... #endif
.................... 
.................... 
.................... #endif
.................... 
.................... 
.................... #include <stdbool.h>
.................... ///////////////////////////////////////////////////////////////////////////
.................... ////                                                                   ////
.................... ////                          stdbool.h                                ////
.................... ////                                                                   ////
.................... //// Standard boolean definitions                                      ////
.................... ////                                                                   ////
.................... ///////////////////////////////////////////////////////////////////////////
.................... ////        (C) Copyright 1996,2012 Custom Computer Services           ////
.................... //// This source code may only be used by licensed users of the CCS C  ////
.................... //// compiler.  This source code may only be distributed to other      ////
.................... //// licensed users of the CCS C compiler.  No other use, reproduction ////
.................... //// or distribution is permitted without written permission.          ////
.................... //// Derivative programs created using this software in object code    ////
.................... //// form are not restricted in any way.                               ////
.................... ///////////////////////////////////////////////////////////////////////////
.................... 
.................... #ifndef __STDBOOL_H__
.................... #define __STDBOOL_H__
.................... 
.................... #if !getenv("CASE")
....................    // remove TRUE and FALSE added by CCS's device .h file, only if
....................    // compiler has case sensitivty off.
.................... 
....................    #if defined(TRUE)
....................       #undef TRUE
....................    #endif
....................    
....................    #if defined(FALSE)
....................       #undef FALSE
....................    #endif
.................... #endif
.................... 
.................... typedef int1   bool;
.................... #define true   1
.................... #define false  0
.................... #define __bool_true_false_are_defined  1
.................... 
.................... #endif
.................... 
.................... #include "../../system/son_tmp_config.h"
.................... #ifndef son_tmp_CONFIG_H
.................... #define son_tmp_CONFIG_H
.................... 
.................... #define SELF_DEVICE_ID CIGS_PIC
.................... 
.................... #include <18F67J94.h>
.................... #opt 0 // 0 = no optimization
.................... 
.................... #use delay(crystal=16MHz)
.................... #fuses HS, NOWDT, NOBROWNOUT, NOPROTECT
.................... 
.................... #define PIC18
.................... 
.................... #ifdef PIC18
....................     // ==========================================
....................     // 1. гғҸгғјгғүгӮҰгӮ§гӮўж§ӢжҲҗгҒЁгғ”гғігӮўгӮөгӮӨгғі
....................     // ==========================================
.................... 
....................     #define PIN_LDO_EN          PIN_E1
....................     #define PIN_VREF_EN         PIN_E0
....................     #define PIN_LED1            PIN_A5
....................     #define PIN_LED2            PIN_A1
.................... 
....................     #define PIN_SW_DIO1         PIN_C1
....................     #define PIN_SW_DIO0         PIN_C2
.................... 
....................     // SPI Chip Select (BOSSгғҳгғғгғҖеҗҚз§°гҒ«йҒ©еҗҲ)
....................     #define MIS_FM_CS           PIN_B1
....................     #define SMF_CS              PIN_D4
....................     #define PIN_CS_ADC          PIN_B3
.................... 
.................... // ------------------------------------------
....................     // UART йҖҡдҝЎиЁӯе®ҡ (еј·еҲ¶гӮҪгғ•гғҲгӮҰгӮ§гӮўеҲ¶еҫЎ)
....................     // ------------------------------------------
....................     #use rs232(baud=9600, parity=N, xmit=PIN_G0, bits=8, stream=PC, FORCE_SW, ERRORS)
....................     #use rs232(baud=9600, parity=N, xmit=PIN_D1, rcv=PIN_D0, bits=8, stream=BOSS, FORCE_SW, ERRORS)
.................... 
....................     // ------------------------------------------
....................     // SPI йҖҡдҝЎиЁӯе®ҡ (еј·еҲ¶гӮҪгғ•гғҲгӮҰгӮ§гӮўеҲ¶еҫЎ)
....................     // ------------------------------------------
....................     #use spi(MASTER, BAUD=1000000, MODE=0, BITS=8, DI=PIN_B5, DO=PIN_B4, CLK=PIN_B2, stream=MIS_FM_STREAM, FORCE_SW)
....................     #use spi(MASTER, BAUD=1000000, MODE=0, BITS=8, DI=PIN_D6, DO=PIN_D7, CLK=PIN_D5, stream=SMF_STREAM, FORCE_SW)
.................... 
.................... #endif
.................... 
.................... // ==========================================
.................... // 2. гӮ·гӮ№гғҶгғ гӮ·гғјгӮұгғігӮ№ гӮігғһгғігғүе®ҡзҫ©
.................... // ==========================================
.................... #define CMD_MISSION_START       0x10
.................... #define RES_MISSION_DONE        0x11
.................... #define CMD_SMF_PREPARE         0x20
.................... #define REQ_SMF_COPY            0x21
.................... #define CMD_SMF_PERMIT          0x22
.................... #define REQ_POWER_OFF           0x30
.................... 
.................... // ==========================================
.................... // 3. гғҮгғјгӮҝгғ•гӮ©гғјгғһгғғгғҲгғ»гғҗгғғгғ•гӮЎе®ҡзҫ©
.................... // ==========================================
.................... #define PACKET_SIZE             64
.................... #define FLASH_PAGE_SIZE         256
.................... #define PACKETS_PER_PAGE        4
.................... #define SMF_TRANSFER_PACKETS    15
.................... 
.................... // гғҳгғғгғҖгғјж§ӢйҖ дҪ“ (8Byte)
.................... typedef struct
.................... {
....................     unsigned int32 timestamp;      // 4 Byte
....................     unsigned int8  mode : 3;       // 3 bit
....................     unsigned int8  channel : 1;    // 1 bit
....................     unsigned int8  samplingRate : 4; // 4 bit
....................     unsigned int16 dataCount;      // 12bitгҒ§гҒҜгҒӘгҒҸ16bit(2Byte)гҒ§зўәдҝқгҒ—гӮЁгғ©гғјгӮ’еӣһйҒҝ
....................     unsigned int8  zeroFill;       // 1 Byte (еҗҲиЁҲ8ByteгҒ«гҒҷгӮӢгҒҹгӮҒ)
.................... } PacketHeader;
.................... 
.................... typedef struct
.................... {
....................     PacketHeader header;           // 8 Byte
....................     unsigned int8 packetNum;       // 1 Byte
....................     unsigned int16 adcData[27];    // 54 Byte
....................     unsigned int8 crc8;            // 1 Byte
.................... } FirstPacket;
.................... 
.................... typedef struct
.................... {
....................     unsigned int8 packetNum;       // 1 Byte
....................     unsigned int16 adcData[31];    // 62 Byte
....................     unsigned int8 crc8;            // 1 Byte
.................... } SubsequentPacket;
.................... 
.................... typedef union
.................... {
....................     unsigned int8 raw[PACKET_SIZE];
....................     FirstPacket first;
....................     SubsequentPacket sub;
.................... } PacketBuffer;
.................... 
.................... #endif // son_tmp_CONFIG_H
.................... 
.................... 
.................... // ============================================================================
.................... // жё©еәҰгғҮгғјгӮҝз”Ёгғ‘гӮұгғғгғҲж§ӢйҖ дҪ“ (64Byte)
.................... // ============================================================================
.................... typedef struct
.................... {
....................     uint8_t packetNum;       // гғ‘гӮұгғғгғҲз•ӘеҸ· (1 Byte)
....................     uint8_t tempData[62];    // жё©еәҰгғҮгғјгӮҝжң¬дҪ“ (62 Byte = 12bit x 41гғҮгғјгӮҝ)
....................     uint8_t crc8;            // CRC-8 (1 Byte)
.................... } TempPacket;
.................... 
.................... // гғЎгғўгғӘгғҗгғғгғ•гӮЎз”Ёе…ұз”ЁдҪ“
.................... typedef union
.................... {
....................     uint8_t raw[PACKET_SIZE];
....................     TempPacket temp;
.................... } TempPacketBuffer;
.................... 
.................... // ============================================================================
.................... // еӨ–йғЁе…¬й–Ӣй–ўж•°гғ—гғӯгғҲгӮҝгӮӨгғ—
.................... // ============================================================================
.................... 
.................... // еҶ…и”өADCгҒ®еҲқжңҹеҢ–
.................... void temp_io_init(void);
.................... 
.................... // еҶ…и”өADCгҒӢгӮүжё©еәҰгӮ»гғігӮөгғјгҒ®еҖӨгӮ’иӘӯгҒҝеҸ–гӮӢ (12bit)
.................... uint16_t read_adc_internal(void);
.................... 
.................... // жё©еәҰиЁҲжё¬гӮ·гғјгӮұгғігӮ№гҒ®е®ҹиЎҢгҒЁFlashгҒёгҒ®дҝқеӯҳ
.................... // startPacketNum: й–Ӣе§Ӣгғ‘гӮұгғғгғҲз•ӘеҸ· (19)
.................... // packetCount: е®ҹиЎҢгҒҷгӮӢгғ‘гӮұгғғгғҲж•° (14)
.................... void execute_temp_measurement(uint8_t startPacketNum, uint8_t packetCount);
.................... 
.................... #endif // son_tmp_TEMP_H
.................... 
.................... #include "../core/storage/son_tmp_flash.h"
.................... #ifndef son_tmp_FLASH_H
.................... #define son_tmp_FLASH_H
.................... 
.................... #include <stdint.h>
.................... ///////////////////////////////////////////////////////////////////////////
.................... ////                                                                   ////
.................... ////                           stdint.h                                ////
.................... ////                                                                   ////
.................... //// Standard integer definitions.                                     ////
.................... ////                                                                   ////
.................... ///////////////////////////////////////////////////////////////////////////
.................... ////        (C) Copyright 1996,2008 Custom Computer Services           ////
.................... //// This source code may only be used by licensed users of the CCS C  ////
.................... //// compiler.  This source code may only be distributed to other      ////
.................... //// licensed users of the CCS C compiler.  No other use, reproduction ////
.................... //// or distribution is permitted without written permission.          ////
.................... //// Derivative programs created using this software in object code    ////
.................... //// form are not restricted in any way.                               ////
.................... ///////////////////////////////////////////////////////////////////////////
.................... 
.................... #ifndef _STDINT
.................... 
.................... #define _STDINT
.................... 
.................... //////////// exact width
.................... 
.................... typedef signed int8 int8_t;
.................... typedef unsigned int8 uint8_t;
.................... typedef signed int16 int16_t;
.................... typedef unsigned int16 uint16_t;
.................... typedef signed int32 int32_t;
.................... typedef unsigned int32 uint32_t;
.................... 
.................... #if defined(__PCD__)
.................... //typedef signed int24 int24_t;
.................... //typedef unsigned int24 uint24_t;
.................... typedef signed int64 int64_t;
.................... typedef unsigned int64 uint64_t;
.................... #endif
.................... 
.................... #define INT8_MAX  (127)
.................... #define INT8_MIN  (-128)
.................... #define UINT8_MAX (255)
.................... 
.................... #define INT16_MAX  (32767)
.................... #define INT16_MIN  (-32768)
.................... #define UINT16_MAX (65535)
.................... 
.................... #define INT32_MAX  (2147483647)
.................... #define INT32_MIN  (-2147483648)
.................... #define UINT32_MAX (4294967295)
.................... 
.................... #if defined(__PCD__)
.................... //#define INT24_MAX  (8388607)
.................... //#define INT24_MIN  (-8388608)
.................... //#define UINT24_MAX (16777215)
.................... 
.................... #define INT64_MAX  (9223372036854775807)
.................... #define INT64_MIN  (-9223372036854775808)
.................... #define UINT64_MAX (18446744073709551615)
.................... #endif
.................... 
.................... ///////// minimum width
.................... 
.................... typedef signed int8 int_least8_t;
.................... typedef unsigned int8 uint_least8_t;
.................... typedef signed int16 int_least16_t;
.................... typedef unsigned int16 uint_least16_t;
.................... typedef signed int32 int_least32_t;
.................... typedef unsigned int32 uint_least32_t;
.................... 
.................... #if defined(__PCD__)
.................... //typedef signed int24 int_least24_t;
.................... //typedef unsigned int24 uint_least24_t;
.................... typedef signed int64 int_least64_t;
.................... typedef unsigned int64 uint_least64_t;
.................... #endif
.................... 
.................... #define INT_LEAST8_MAX  (127)
.................... #define INT_LEAST8_MIN  (-128)
.................... #define UINT_LEAST8_MAX (255)
.................... 
.................... #define INT_LEAST16_MAX  (32767)
.................... #define INT_LEAST16_MIN  (-32768)
.................... #define UINT_LEAST16_MAX (65535)
.................... 
.................... #define INT_LEAST32_MAX  (2147483647)
.................... #define INT_LEAST32_MIN  (-2147483648)
.................... #define UINT_LEAST32_MAX (4294967295)
.................... 
.................... #if defined(__PCD__)
.................... //#define INT_LEAST24_MAX  (8388607)
.................... //#define INT_LEAST24_MIN  (-8388608)
.................... //#define UINT_LEAST24_MAX (16777215)
.................... 
.................... #define INT_LEAST64_MAX  (9223372036854775807)
.................... #define INT_LEAST64_MIN  (-9223372036854775808)
.................... #define UINT_LEAST64_MAX (18446744073709551615)
.................... #endif
.................... 
.................... ///////// fastest width
.................... 
.................... #if defined(__PCD__)
.................... typedef signed int16 int_fast8_t;
.................... typedef unsigned int16 uint_fast8_t;
.................... #define INT_FAST8_MAX  (32767)
.................... #define INT_FAST8_MIN  (-32768)
.................... #define UINT_FAST8_MAX (65535)
.................... typedef signed int16 int_fast16_t;
.................... typedef unsigned int16 uint_fast16_t;
.................... //typedef signed int24 int_fast24_t;
.................... //typedef unsigned int24 uint_fast24_t;
.................... typedef signed int64 int_fast64_t;
.................... typedef unsigned int64 uint_fast64_t;
.................... #else
.................... typedef signed int8 int_fast8_t;
.................... typedef unsigned int8 uint_fast8_t;
.................... #define INT_FAST8_MAX  (127)
.................... #define INT_FAST8_MIN  (-128)
.................... #define UINT_FAST8_MAX (255)
.................... typedef signed int16 int_fast16_t;
.................... typedef unsigned int16 uint_fast16_t;
.................... #endif
.................... 
.................... typedef signed int32 int_fast32_t;
.................... typedef unsigned int32 uint_fast32_t;
.................... 
.................... #define INT_FAST16_MAX  (32767)
.................... #define INT_FAST16_MIN  (-32768)
.................... #define UINT_FAST16_MAX (65535)
.................... 
.................... #define INT_FAST32_MAX  (2147483647)
.................... #define INT_FAST32_MIN  (-2147483648)
.................... #define UINT_FAST32_MAX (4294967295)
.................... 
.................... #if defined(__PCD__)
.................... //#define INT_FAST24_MAX  (8388607)
.................... //#define INT_FAST24_MIN  (-8388608)
.................... //#define UINT_FAST24_MAX (16777215)
.................... 
.................... #define INT_FAST64_MAX  (9223372036854775807)
.................... #define INT_FAST64_MIN  (-9223372036854775808)
.................... #define UINT_FAST64_MAX (18446744073709551615)
.................... #endif
.................... 
.................... //////////// big enough to hold pointers (OPTIONAL)
.................... 
.................... #if defined(__PCD__)
....................    typedef unsigned int32 uintptr_t;
....................    typedef signed int32 intptr_t;
.................... #else
....................    typedef unsigned int16 uintptr_t;
....................    typedef signed int16 intptr_t;
.................... #endif
.................... 
.................... #define INT8_C(val) ((int8_t)val)
.................... #define UINT8_C(val) ((uint8_t)val)
.................... #define INT16_C(val) ((int16_t)val)
.................... #define UINT16_C(val) ((uint16_t)val)
.................... #define INT32_C(val) ((int32_t)val)
.................... #define UINT32_C(val) ((uint32_t)val)
.................... 
.................... #if defined(__PCD__)
.................... #define INT64_C(val) ((int64_t)val)
.................... #define UINT64_C(val) ((uint64_t)val)
.................... #endif
.................... 
.................... /// TODO:
.................... /// INTPTRN_MIN INTPTRN_MAX UINTPTRN_MAX
.................... 
.................... 
.................... /////////// greatest width (OPTIONAL)
.................... 
.................... #ifdef __PCD__
....................    typedef signed int64 intmax_t;
....................    typedef unsigned int64 uintmax_t;
....................    
....................    #define INTMAXN_MAX  (9223372036854775807)
....................    #define INTMAXN_MIN  (-9223372036854775808)
....................    #define UINTMAXN_MAX (18446744073709551615)
....................    
....................    #define INTMAX_C(value) ((signed int64)val)
....................    #define UINTMAX_C(value) ((unsigned int64)val)
.................... #else
....................    typedef signed int32 intmax_t;
....................    typedef unsigned int32 uintmax_t;
....................    
....................    #define INTMAXN_MAX  (2147483647)
....................    #define INTMAXN_MIN  (-2147483648)
....................    #define UINTMAXN_MAX (4294967295)
....................    
....................    #define INTMAX_C(value) ((signed int32)val)
....................    #define UINTMAX_C(value) ((unsigned int32)val)
.................... #endif
.................... 
.................... 
.................... #endif
.................... 
.................... 
.................... #include <string.h>
.................... ////////////////////////////////////////////////////////////////////////////
.................... ////        (C) Copyright 1996,2008 Custom Computer Services            ////
.................... //// This source code may only be used by licensed users of the CCS C   ////
.................... //// compiler.  This source code may only be distributed to other       ////
.................... //// licensed users of the CCS C compiler.  No other use, reproduction  ////
.................... //// or distribution is permitted without written permission.           ////
.................... //// Derivative programs created using this software in object code     ////
.................... //// form are not restricted in any way.                                ////
.................... ////////////////////////////////////////////////////////////////////////////
.................... 
.................... #ifndef _STRING
.................... #define _STRING
.................... #include <stddef.h>
.................... ///////////////////////////////////////////////////////////////////////////
.................... ////        (C) Copyright 1996,2003 Custom Computer Services           ////
.................... //// This source code may only be used by licensed users of the CCS C  ////
.................... //// compiler.  This source code may only be distributed to other      ////
.................... //// licensed users of the CCS C compiler.  No other use, reproduction ////
.................... //// or distribution is permitted without written permission.          ////
.................... //// Derivative programs created using this software in object code    ////
.................... //// form are not restricted in any way.                               ////
.................... ///////////////////////////////////////////////////////////////////////////
.................... 
.................... #ifndef _STDDEF
.................... 
.................... #define _STDDEF
.................... 
.................... #if sizeof(unsigned int8 *)==1
.................... #define ptrdiff_t unsigned int8
.................... #else
.................... #define ptrdiff_t unsigned int16
.................... #endif
.................... 
.................... #if defined(__PCB__) || defined(__PCM__)
.................... #define size_t unsigned int8
.................... #else
.................... #define size_t unsigned int16
.................... #endif
.................... #define wchar_t unsigned char
.................... #define NULL 0
.................... 
.................... #define offsetof(s,f) (offsetofbit(s,f)/8)
.................... 
.................... #endif
.................... 
.................... #include <ctype.h>
.................... ////////////////////////////////////////////////////////////////////////////
.................... ////        (C) Copyright 1996,2003 Custom Computer Services            ////
.................... //// This source code may only be used by licensed users of the CCS C   ////
.................... //// compiler.  This source code may only be distributed to other       ////
.................... //// licensed users of the CCS C compiler.  No other use, reproduction  ////
.................... //// or distribution is permitted without written permission.           ////
.................... //// Derivative programs created using this software in object code     ////
.................... //// form are not restricted in any way.                                ////
.................... ////////////////////////////////////////////////////////////////////////////
.................... 
.................... #ifndef _CTYPE
.................... #define _CTYPE
.................... 
.................... #define islower(x)  isamong(x,"abcdefghijklmnopqrstuvwxyz")
.................... #define isupper(x)  isamong(x,"ABCDEFGHIJKLMNOPQRSTUVWXYZ")
.................... #define isalnum(x)  isamong(x,"0123456789ABCDEFGHIJKLMNOPQRSTUVWXYZabcdefghijklmnopqrstuvwxyz")
.................... #define isalpha(x)  isamong(x,"ABCDEFGHIJKLMNOPQRSTUVWXYZabcdefghijklmnopqrstuvwxyz")
.................... #define isdigit(x)  isamong(x,"0123456789")
.................... #define isspace(x)  ((x)==' ')
.................... #define isxdigit(x) isamong(x,"0123456789ABCDEFabcdef")
.................... #define iscntrl(x)  ((x)<' ')
.................... #define isprint(x)  ((x)>=' ')
.................... #define isgraph(x)  ((x)>' ')
.................... #define ispunct(x)  (((x)>' ')&&!isalnum(x))
.................... 
.................... #endif
.................... 
.................... 
.................... 
.................... 
.................... 
.................... //////////////////////////////////////////////
.................... //// Uncomment the following define to    ////
.................... //// allow some functions to use a        ////
.................... //// quicker algorithm, but use more ROM  ////
.................... ////                                      ////
.................... //// #define FASTER_BUT_MORE_ROM          ////
.................... //////////////////////////////////////////////
.................... 
.................... 
.................... 
.................... /*Copying functions*/
.................... /* standard template:
....................    void *memmove(void *s1, void *s2, size_t n).
....................    Copies max of n characters safely (not following ending '\0')
....................    from s2 in s1; if s2 has less than n characters, appends 0 */
.................... 
.................... unsigned char *memmove(void *s1,void *s2,size_t n)
.................... {
....................    unsigned char *sc1;
....................    unsigned char *sc2;
....................    sc1=s1;
....................    sc2=s2;
....................    if(sc2<sc1 && sc1 <sc2 +n)
....................       for(sc1+=n,sc2+=n;0<n;--n)
....................          *--sc1=*--sc2;
....................    else
....................       for(;0<n;--n)
....................          *sc1++=*sc2++;
....................   return s1;
....................   }
.................... 
.................... /* Standard template: char *strcpy(char *s1, const char *s2)
....................    copies the string s2 including the null character to s1.
....................    This is a compiler built in to handle the different address
....................    spaces */
.................... 
.................... #define strcopy strcpy
.................... 
.................... /* standard template:
....................    char *strncpy(char *s1, const char *s2, size_t n).
....................    Copies max of n characters (not following ending '\0')
....................    from s2 in s1; if s2 has less than n characters, appends 0 */
.................... 
.................... char *strncpy(char *s1, char *s2, size_t n)
.................... {
....................   char *s;
.................... 
....................   for (s = s1; n > 0 && *s2 != '\0'; n--)
....................      *s++ = *s2++;
....................   for (; n > 0; n--)
....................      *s++ = '\0';
.................... 
....................   return(s1);
.................... }
.................... /***********************************************************/
.................... 
.................... /*concatenation functions*/
.................... /* standard template: char *strcat(char *s1, const char *s2)
.................... appends s2 to s1*/
.................... 
.................... char *strcat(char *s1, char *s2)
.................... {
....................    unsigned char *s;
.................... 
....................    for (s = s1; *s != '\0'; ++s);
....................    while(*s2 != '\0')
....................    {
....................       *s = *s2;
....................       ++s;
....................       ++s2;
....................    }
.................... 
....................    *s = '\0';
....................    return(s1);
.................... }
.................... /* standard template: char *strncat(char *s1, char *s2,size_t n)
.................... appends not more than n characters from s2 to s1*/
.................... 
.................... char *strncat(char *s1, char *s2, size_t n)
.................... {
....................    char *s;
.................... 
....................    for (s = s1; *s != '\0'; ++s);
....................    while(*s2 != '\0' && 0<n)
....................    {
....................       *s = *s2;
....................       ++s;
....................       ++s2;
....................       --n;
....................    }
.................... 
....................    *s = '\0';
....................    return(s1);
.................... }
.................... 
.................... /***********************************************************/
.................... 
.................... 
.................... /*comparison functions*/
.................... /* standard template: signed int memcmp(void *s1, void *s2).
....................    Compares s1 & s2; returns -1 if s1<s2, 0 if s1=s2, 1 if s1>s2 */
.................... 
.................... signed int memcmp(void * s1,void *s2,size_t n)
.................... {
.................... unsigned char *su1, *su2;
.................... for(su1=s1, su2=s2; 0<n; ++su1, ++su2, --n)
.................... {
....................    if(*su1!=*su2)
....................       return ((*su1<*su2)?-1:1);
.................... }
.................... return 0;
.................... }
.................... 
.................... /* standard template: int strcmp(const char *s1, const char *s2).
....................    Compares s1 & s2; returns -1 if s1<s2, 0 if s1=s2, 1 if s1>s2 */
.................... 
.................... signed int strcmp(char *s1, char *s2)
.................... {
....................    for (; *s1 == *s2; s1++, s2++)
....................       if (*s1 == '\0')
....................          return(0);
....................    return((*s1 < *s2) ? -1: 1);
.................... }
.................... /* standard template: int strcoll(const char *s1, const char *s2).
....................    Compares s1 & s2; returns -1 if s1<s2, 0 if s1=s2, 1 if s1>s2 */
.................... 
.................... signed int strcoll(char *s1, char *s2)
.................... {
....................    for (; *s1 == *s2; s1++, s2++)
....................       if (*s1 == '\0')
....................          return(0);
....................    return((*s1 < *s2) ? -1: 1);
.................... }
.................... 
.................... /* standard template:
....................    int strncmp(const char *s1, const char *s2, size_t n).
....................    Compares max of n characters (not following 0) from s1 to s2;
....................    returns same as strcmp */
.................... 
.................... signed int strncmp(char *s1, char *s2, size_t n)
.................... {
....................    for (; n > 0; s1++, s2++, n--)
....................       if (*s1 != *s2)
....................          return((*s1 <*s2) ? -1: 1);
....................       else if (*s1 == '\0')
....................          return(0);
....................    return(0);
.................... }
.................... /* standard template:
....................    int strxfrm(const char *s1, const char *s2, size_t n).
....................    transforms maximum of n characters from s2 and places them into s1, returns number of chars written ot s1.
....................    if s1 is NULL and n is 0, then it returns the length of s2.*/
.................... size_t strxfrm(char *s1, char *s2, size_t n)
.................... {
....................    char c;
....................    size_t n1;
....................    
....................    if (!s1 && !n)
....................       n = -1; //find length
.................... 
....................    n1 = 0;
....................    
....................    for (; n1 < n; n1++)
....................    {
....................       c = *s2++;
....................       if (!c)
....................          break;
....................       if (s1)
....................          *s1++ = c;
....................    }
.................... 
....................   return(n1);
.................... }
.................... 
.................... 
.................... 
.................... 
.................... 
.................... /***********************************************************/
.................... /*Search functions*/
.................... /* standard template: void *memchr(const char *s, int c).
....................    Finds first occurrence of c in n characters of s */
.................... 
.................... char *memchr(void *s,unsigned int8 c,size_t n)
.................... {
....................    char uc;
....................    char *su;
....................    uc=c;
....................    for(su=s;0<n;++su,--n)
....................       if(*su==uc)
....................       return su;
....................    return NULL;
.................... }
.................... 
.................... /* standard template: char *strchr(const char *s, int c).
....................    Finds first occurrence of c in s */
.................... 
.................... char *strchr(char *s, char c)
.................... {
....................    for (; *s != c; s++)
....................       if (*s == '\0')
....................          return(0);
....................    return(s);
.................... }
.................... /* standard template:
....................    size_t strcspn(const char *s1, const char *s2).
....................    Computes length of max initial segment of s1 that
....................    consists entirely of characters NOT from s2*/
.................... 
.................... size_t strcspn(char *s1, char *s2)
.................... {
....................    char *sc1, *sc2;
.................... 
....................    for (sc1 = s1; *sc1 != 0; sc1++)
....................       for (sc2 = s2; *sc2 != 0; sc2++)
....................          if (*sc1 == *sc2)
....................             return(sc1 - s1);
....................    return(sc1 - s1);
.................... }
.................... /* standard template:
....................    char *strpbrk(const char *s1, const char *s2).
....................    Locates first occurence of any character from s2 in s1;
....................    returns s1 if s2 is empty string */
.................... 
.................... char *strpbrk(char *s1, char *s2)
.................... {
....................    char *sc1, *sc2;
.................... 
....................    for (sc1 = s1; *sc1 != 0; sc1++)
....................       for (sc2 = s2; *sc2 != 0; sc2++)
....................          if (*sc1 == *sc2)
....................             return(sc1);
....................    return(0);
.................... }
.................... 
.................... 
.................... /* standard template: char *strrchr(const char *s, int c).
....................    Finds last occurrence of c in s */
.................... 
.................... char *strrchr(char *s, char c)
.................... {
....................    char *p;
.................... 
....................    for (p = 0; ; s++)
....................    {
....................       if (*s == c)
....................          p = s;
....................       if (*s == '\0')
....................          return(p);
....................    }
.................... }
.................... /* computes length of max initial segment of s1 consisting
....................    entirely of characters from s2 */
.................... 
.................... size_t strspn(char *s1, char *s2)
.................... {
....................    char *sc1, *sc2;
.................... 
....................    for (sc1 = s1; *sc1 != 0; sc1++)
....................       for (sc2 = s2; ; sc2++)
....................     if (*sc2 == '\0')
....................        return(sc1 - s1);
....................          else if (*sc1 == *sc2)
....................             break;
....................    return(sc1 - s1);
.................... }
.................... /* standard template:
....................    char *strstr(const char *s1, const char *s2);
....................    Locates first occurence of character sequence s2 in s1;
....................    returns 0 if s2 is empty string
.................... 
....................    Uncomment #define FASTER_BUT_MORE_ROM at the top of the
....................    file to use the faster algorithm */
.................... char *strstr(char *s1, char *s2)
.................... {
....................    char *s, *t;
.................... 
....................    #ifdef FASTER_BUT_MORE_ROM
....................    if (*s2 == '\0')
....................          return(s1);
....................    #endif
.................... 
....................    while (*s1)
....................    {
....................       for(s = s1, t = s2; *t && (*s == *t); ++s, ++t);
.................... 
....................       if (*t == '\0')
....................          return s1;
....................       ++s1;
....................       #ifdef FASTER_BUT_MORE_ROM
....................          while(*s1 != '\0' && *s1 != *s2)
....................             ++s1;
....................       #endif
....................    }
....................    return 0;
.................... }
.................... 
.................... /* standard template: size_t strlen(const char *s).
....................    Computes length of s1 (preceding terminating 0) */
.................... 
.................... size_t strlen(char *s)
.................... {
....................    char *sc;
.................... 
....................    for (sc = s; *sc != 0; sc++);
....................    return(sc - s);
.................... }
.................... 
.................... /* standard template: char *strtok(char *s1, const char *s2).
.................... 
....................    Finds next token in s1 delimited by a character from separator
....................    string s2 (which can be different from call to call).  First call
....................    starts at beginning of s1 searching for first character NOT
....................    contained in s2; returns 0 if none is found.
....................    If one is found, it is the start of first token (return value).
....................    Function then searches from there for a character contained in s2.
....................    If none is found, current token extends to end of s1, and subsequent
....................    searches for a token will return 0.  If one is found, it is
....................    overwritten by '\0', which terminates current token.  Function saves
....................    pointer to following character from which next search will start.
....................    Each subsequent call, with 0 as first argument, starts searching
....................    from saved pointer */
.................... 
.................... char *strtok(char *s1, char *s2)
.................... {
....................    char *beg, *end;
....................    static char *save;
.................... 
....................    beg = (s1)? s1: save;
....................    beg += strspn(beg, s2);
....................    if (*beg == '\0')
....................       return(0);
....................       
....................    end = strpbrk(beg, s2);
....................    if (end != '\0')
....................    {
....................       *end = '\0';
....................       end++;
....................       save = end;
....................    }
....................    else
....................       save = beg + strlen(beg);
....................    
....................    return(beg);
.................... }
.................... 
.................... /*****************************************************************/
.................... /*Miscellaneous functions*/
.................... /* standard template
.................... maps error number in errnum to an error message string
.................... Returns: Pointer to string
.................... */
.................... #ifdef _ERRNO
.................... char * strerror(unsigned int8 errnum)
.................... {
.................... static unsigned char s[13];
.................... switch( errnum)
.................... {
.................... case 0:
....................    strcpy(s,"no errors");
....................    return s;
.................... case EDOM :
....................    strcpy(s,"domain error");
....................    return s;
.................... case ERANGE:
....................    strcpy(s,"range error");
....................    return s;
.................... }
.................... }
.................... #ENDIF
.................... 
.................... /* standard template: size_t stricmp(const char *s1, const char *s2).
....................    Compares s1 to s2 ignoring case (upper vs. lower) */
.................... 
.................... signed int stricmp(char *s1, char *s2)
.................... {
....................  for(; *s1==*s2||(isalpha(*s1)&&isalpha(*s2)&&((char)*s1==(char)*s2+(char)32||(char)*s2==(char)*s1+(char)32));
....................     s1++, s2++)
....................     if (*s1 == '\0')
....................        return(0);
....................  return((*s1 < *s2) ? -1: 1);
.................... }
.................... 
.................... 
.................... /* standard template: char *strlwr(char *s).
....................    Replaces uppercase letters by lowercase;
....................    returns pointer to new string s */
.................... 
.................... char *strlwr(char *s)
.................... {
....................    char *p;
.................... 
....................    for (p = s; *p != '\0'; p++)
....................       if (*p >= 'A' && *p <='Z')
....................          *p += 'a' - 'A';
....................    return(s);
.................... }
.................... 
.................... /* standard template: char *strupr(char *s).
....................    Replaces lowercase letters by upercase;
....................    returns pointer to new string s */
.................... 
.................... char *strupr(char *s)
.................... {
....................    char *p;
.................... 
....................    for (p = s; *p != '\0'; p++)
....................       if (*p >= 'a' && *p <='z')
....................          *p -= 'a' - 'A';
....................    return(s);
.................... }
.................... 
.................... 
.................... /************************************************************/
.................... 
.................... 
.................... #endif
.................... 
.................... #include "../../system/son_tmp_config.h"
.................... #ifndef son_tmp_CONFIG_H
.................... #define son_tmp_CONFIG_H
.................... 
.................... #define SELF_DEVICE_ID CIGS_PIC
.................... 
.................... #include <18F67J94.h>
.................... #opt 0 // 0 = no optimization
.................... 
.................... #use delay(crystal=16MHz)
.................... #fuses HS, NOWDT, NOBROWNOUT, NOPROTECT
.................... 
.................... #define PIC18
.................... 
.................... #ifdef PIC18
....................     // ==========================================
....................     // 1. гғҸгғјгғүгӮҰгӮ§гӮўж§ӢжҲҗгҒЁгғ”гғігӮўгӮөгӮӨгғі
....................     // ==========================================
.................... 
....................     #define PIN_LDO_EN          PIN_E1
....................     #define PIN_VREF_EN         PIN_E0
....................     #define PIN_LED1            PIN_A5
....................     #define PIN_LED2            PIN_A1
.................... 
....................     #define PIN_SW_DIO1         PIN_C1
....................     #define PIN_SW_DIO0         PIN_C2
.................... 
....................     // SPI Chip Select (BOSSгғҳгғғгғҖеҗҚз§°гҒ«йҒ©еҗҲ)
....................     #define MIS_FM_CS           PIN_B1
....................     #define SMF_CS              PIN_D4
....................     #define PIN_CS_ADC          PIN_B3
.................... 
.................... // ------------------------------------------
....................     // UART йҖҡдҝЎиЁӯе®ҡ (еј·еҲ¶гӮҪгғ•гғҲгӮҰгӮ§гӮўеҲ¶еҫЎ)
....................     // ------------------------------------------
....................     #use rs232(baud=9600, parity=N, xmit=PIN_G0, bits=8, stream=PC, FORCE_SW, ERRORS)
....................     #use rs232(baud=9600, parity=N, xmit=PIN_D1, rcv=PIN_D0, bits=8, stream=BOSS, FORCE_SW, ERRORS)
.................... 
....................     // ------------------------------------------
....................     // SPI йҖҡдҝЎиЁӯе®ҡ (еј·еҲ¶гӮҪгғ•гғҲгӮҰгӮ§гӮўеҲ¶еҫЎ)
....................     // ------------------------------------------
....................     #use spi(MASTER, BAUD=1000000, MODE=0, BITS=8, DI=PIN_B5, DO=PIN_B4, CLK=PIN_B2, stream=MIS_FM_STREAM, FORCE_SW)
....................     #use spi(MASTER, BAUD=1000000, MODE=0, BITS=8, DI=PIN_D6, DO=PIN_D7, CLK=PIN_D5, stream=SMF_STREAM, FORCE_SW)
.................... 
.................... #endif
.................... 
.................... // ==========================================
.................... // 2. гӮ·гӮ№гғҶгғ гӮ·гғјгӮұгғігӮ№ гӮігғһгғігғүе®ҡзҫ©
.................... // ==========================================
.................... #define CMD_MISSION_START       0x10
.................... #define RES_MISSION_DONE        0x11
.................... #define CMD_SMF_PREPARE         0x20
.................... #define REQ_SMF_COPY            0x21
.................... #define CMD_SMF_PERMIT          0x22
.................... #define REQ_POWER_OFF           0x30
.................... 
.................... // ==========================================
.................... // 3. гғҮгғјгӮҝгғ•гӮ©гғјгғһгғғгғҲгғ»гғҗгғғгғ•гӮЎе®ҡзҫ©
.................... // ==========================================
.................... #define PACKET_SIZE             64
.................... #define FLASH_PAGE_SIZE         256
.................... #define PACKETS_PER_PAGE        4
.................... #define SMF_TRANSFER_PACKETS    15
.................... 
.................... // гғҳгғғгғҖгғјж§ӢйҖ дҪ“ (8Byte)
.................... typedef struct
.................... {
....................     unsigned int32 timestamp;      // 4 Byte
....................     unsigned int8  mode : 3;       // 3 bit
....................     unsigned int8  channel : 1;    // 1 bit
....................     unsigned int8  samplingRate : 4; // 4 bit
....................     unsigned int16 dataCount;      // 12bitгҒ§гҒҜгҒӘгҒҸ16bit(2Byte)гҒ§зўәдҝқгҒ—гӮЁгғ©гғјгӮ’еӣһйҒҝ
....................     unsigned int8  zeroFill;       // 1 Byte (еҗҲиЁҲ8ByteгҒ«гҒҷгӮӢгҒҹгӮҒ)
.................... } PacketHeader;
.................... 
.................... typedef struct
.................... {
....................     PacketHeader header;           // 8 Byte
....................     unsigned int8 packetNum;       // 1 Byte
....................     unsigned int16 adcData[27];    // 54 Byte
....................     unsigned int8 crc8;            // 1 Byte
.................... } FirstPacket;
.................... 
.................... typedef struct
.................... {
....................     unsigned int8 packetNum;       // 1 Byte
....................     unsigned int16 adcData[31];    // 62 Byte
....................     unsigned int8 crc8;            // 1 Byte
.................... } SubsequentPacket;
.................... 
.................... typedef union
.................... {
....................     unsigned int8 raw[PACKET_SIZE];
....................     FirstPacket first;
....................     SubsequentPacket sub;
.................... } PacketBuffer;
.................... 
.................... #endif // son_tmp_CONFIG_H
.................... 
.................... 
.................... // е…ұйҖҡгғ©гӮӨгғ–гғ©гғӘгҒ®гғҳгғғгғҖ (MissionIDгҒӘгҒ©гҒ®е®ҡж•°з”Ё)
.................... // #include "../../../lib/communication/typedef_content.h"
.................... // #include "../../../lib/communication/value_status.h"
.................... 
.................... // ============================================================================
.................... // гғЎгғўгғӘгғһгғғгғ—е®ҡзҫ© (MT25QL128ABA: 16MB)
.................... // ============================================================================
.................... #define MISF_START 0x00000000
.................... #define MISF_END   0x00FFFFFF
.................... 
.................... #define SECTOR_64K_BYTE  0x10000
.................... 
.................... #define MISF_CIGS_DATA_TABLE_SIZE 64
.................... 
.................... #define MISF_CIGS_DATA_TABLE_START 0x00000000
.................... #define MISF_CIGS_DATA_TABLE_END   0x00000FFF
.................... #define MISF_CIGS_PICLOG_START     0x00010000
.................... #define MISF_CIGS_PICLOG_END       0x00140FFF
.................... #define MISF_CIGS_ENVIRO_START     0x00281000
.................... #define MISF_CIGS_ENVIRO_END       0x00320FFF
.................... #define MISF_CIGS_IV_HEADER_START  0x00721000
.................... #define MISF_CIGS_IV_HEADER_END    0x007C0FFF
.................... #define MISF_CIGS_IV_DATA_START    0x007C1000
.................... #define MISF_CIGS_IV_DATA_END      0x00D00000
.................... 
.................... // ============================================================================
.................... // гғҮгғјгӮҝж§ӢйҖ дҪ“е®ҡзҫ©
.................... // ============================================================================
.................... 
.................... // гғ•гғ©гғғгӮ·гғҘгӮ«гӮҰгғігӮҝж§ӢйҖ дҪ“ (11 Bytes)
.................... typedef struct
.................... {
....................     uint8_t   mission_id;
....................     uint32_t  used_counter;
....................     uint32_t  uncopied_counter;
....................     uint8_t   reserve_counter1;
....................     uint8_t   reserve_counter2;
.................... } Flash_t;
.................... 
.................... // гғҶгғјгғ–гғ«дҝқеӯҳз”ЁгҒ®64Byteгғ‘гӮұгғғгғҲж§ӢйҖ дҪ“
.................... typedef union
.................... {
....................     struct
....................     {
....................         union
....................         {
....................             struct
....................             {
....................                 Flash_t piclog;
....................                 Flash_t environment;
....................                 Flash_t iv_header;
....................                 Flash_t iv_data;
....................             } logdata;
....................             uint8_t reserve[63];
....................         } payload;
....................         uint8_t crc; // 1гғҗгӮӨгғҲгҒ®CRC
....................     } packet;
....................     uint8_t bytes[64];
.................... } FlashData_t;
.................... 
.................... typedef struct
.................... {
....................     uint32_t start_address;
....................     uint32_t end_address;
.................... } MisfStatusStruct;
.................... 
.................... typedef struct
.................... {
....................     uint32_t start_address;
....................     uint32_t size;
.................... } MisfWriteStruct;
.................... 
.................... // ============================================================================
.................... // гӮ°гғӯгғјгғҗгғ«еӨүж•° (е®ЈиЁҖгҒ®гҒҝгҖҒе®ҹдҪ“гҒҜ.cгғ•гӮЎгӮӨгғ«гҒ«иЁҳиҝ°)
.................... // ============================================================================
.................... extern Flash_t piclog_data;
.................... extern Flash_t environment_data;
.................... extern Flash_t iv_header;
.................... extern Flash_t iv_data;
.................... 
.................... // ============================================================================
.................... // еӨ–йғЁе…¬й–Ӣй–ўж•°гғ—гғӯгғҲгӮҝгӮӨгғ—
.................... // ============================================================================
.................... void misf_init(void);
.................... FlashData_t make_flash_data_table(void);
.................... void write_misf_address_area(void);
.................... MisfStatusStruct get_misf_status_struct(uint8_t mission_id);
.................... MisfWriteStruct get_misf_write_struct(uint8_t mission_id);
.................... void print_flash_status(void);
.................... 
.................... #endif // son_tmp_FLASH_H
.................... 
.................... #include "../core/logging/son_tmp_piclog.h"
.................... #ifndef son_tmp_PICLOG_H
.................... #define son_tmp_PICLOG_H
.................... 
.................... #include <stdint.h>
.................... ///////////////////////////////////////////////////////////////////////////
.................... ////                                                                   ////
.................... ////                           stdint.h                                ////
.................... ////                                                                   ////
.................... //// Standard integer definitions.                                     ////
.................... ////                                                                   ////
.................... ///////////////////////////////////////////////////////////////////////////
.................... ////        (C) Copyright 1996,2008 Custom Computer Services           ////
.................... //// This source code may only be used by licensed users of the CCS C  ////
.................... //// compiler.  This source code may only be distributed to other      ////
.................... //// licensed users of the CCS C compiler.  No other use, reproduction ////
.................... //// or distribution is permitted without written permission.          ////
.................... //// Derivative programs created using this software in object code    ////
.................... //// form are not restricted in any way.                               ////
.................... ///////////////////////////////////////////////////////////////////////////
.................... 
.................... #ifndef _STDINT
.................... 
.................... #define _STDINT
.................... 
.................... //////////// exact width
.................... 
.................... typedef signed int8 int8_t;
.................... typedef unsigned int8 uint8_t;
.................... typedef signed int16 int16_t;
.................... typedef unsigned int16 uint16_t;
.................... typedef signed int32 int32_t;
.................... typedef unsigned int32 uint32_t;
.................... 
.................... #if defined(__PCD__)
.................... //typedef signed int24 int24_t;
.................... //typedef unsigned int24 uint24_t;
.................... typedef signed int64 int64_t;
.................... typedef unsigned int64 uint64_t;
.................... #endif
.................... 
.................... #define INT8_MAX  (127)
.................... #define INT8_MIN  (-128)
.................... #define UINT8_MAX (255)
.................... 
.................... #define INT16_MAX  (32767)
.................... #define INT16_MIN  (-32768)
.................... #define UINT16_MAX (65535)
.................... 
.................... #define INT32_MAX  (2147483647)
.................... #define INT32_MIN  (-2147483648)
.................... #define UINT32_MAX (4294967295)
.................... 
.................... #if defined(__PCD__)
.................... //#define INT24_MAX  (8388607)
.................... //#define INT24_MIN  (-8388608)
.................... //#define UINT24_MAX (16777215)
.................... 
.................... #define INT64_MAX  (9223372036854775807)
.................... #define INT64_MIN  (-9223372036854775808)
.................... #define UINT64_MAX (18446744073709551615)
.................... #endif
.................... 
.................... ///////// minimum width
.................... 
.................... typedef signed int8 int_least8_t;
.................... typedef unsigned int8 uint_least8_t;
.................... typedef signed int16 int_least16_t;
.................... typedef unsigned int16 uint_least16_t;
.................... typedef signed int32 int_least32_t;
.................... typedef unsigned int32 uint_least32_t;
.................... 
.................... #if defined(__PCD__)
.................... //typedef signed int24 int_least24_t;
.................... //typedef unsigned int24 uint_least24_t;
.................... typedef signed int64 int_least64_t;
.................... typedef unsigned int64 uint_least64_t;
.................... #endif
.................... 
.................... #define INT_LEAST8_MAX  (127)
.................... #define INT_LEAST8_MIN  (-128)
.................... #define UINT_LEAST8_MAX (255)
.................... 
.................... #define INT_LEAST16_MAX  (32767)
.................... #define INT_LEAST16_MIN  (-32768)
.................... #define UINT_LEAST16_MAX (65535)
.................... 
.................... #define INT_LEAST32_MAX  (2147483647)
.................... #define INT_LEAST32_MIN  (-2147483648)
.................... #define UINT_LEAST32_MAX (4294967295)
.................... 
.................... #if defined(__PCD__)
.................... //#define INT_LEAST24_MAX  (8388607)
.................... //#define INT_LEAST24_MIN  (-8388608)
.................... //#define UINT_LEAST24_MAX (16777215)
.................... 
.................... #define INT_LEAST64_MAX  (9223372036854775807)
.................... #define INT_LEAST64_MIN  (-9223372036854775808)
.................... #define UINT_LEAST64_MAX (18446744073709551615)
.................... #endif
.................... 
.................... ///////// fastest width
.................... 
.................... #if defined(__PCD__)
.................... typedef signed int16 int_fast8_t;
.................... typedef unsigned int16 uint_fast8_t;
.................... #define INT_FAST8_MAX  (32767)
.................... #define INT_FAST8_MIN  (-32768)
.................... #define UINT_FAST8_MAX (65535)
.................... typedef signed int16 int_fast16_t;
.................... typedef unsigned int16 uint_fast16_t;
.................... //typedef signed int24 int_fast24_t;
.................... //typedef unsigned int24 uint_fast24_t;
.................... typedef signed int64 int_fast64_t;
.................... typedef unsigned int64 uint_fast64_t;
.................... #else
.................... typedef signed int8 int_fast8_t;
.................... typedef unsigned int8 uint_fast8_t;
.................... #define INT_FAST8_MAX  (127)
.................... #define INT_FAST8_MIN  (-128)
.................... #define UINT_FAST8_MAX (255)
.................... typedef signed int16 int_fast16_t;
.................... typedef unsigned int16 uint_fast16_t;
.................... #endif
.................... 
.................... typedef signed int32 int_fast32_t;
.................... typedef unsigned int32 uint_fast32_t;
.................... 
.................... #define INT_FAST16_MAX  (32767)
.................... #define INT_FAST16_MIN  (-32768)
.................... #define UINT_FAST16_MAX (65535)
.................... 
.................... #define INT_FAST32_MAX  (2147483647)
.................... #define INT_FAST32_MIN  (-2147483648)
.................... #define UINT_FAST32_MAX (4294967295)
.................... 
.................... #if defined(__PCD__)
.................... //#define INT_FAST24_MAX  (8388607)
.................... //#define INT_FAST24_MIN  (-8388608)
.................... //#define UINT_FAST24_MAX (16777215)
.................... 
.................... #define INT_FAST64_MAX  (9223372036854775807)
.................... #define INT_FAST64_MIN  (-9223372036854775808)
.................... #define UINT_FAST64_MAX (18446744073709551615)
.................... #endif
.................... 
.................... //////////// big enough to hold pointers (OPTIONAL)
.................... 
.................... #if defined(__PCD__)
....................    typedef unsigned int32 uintptr_t;
....................    typedef signed int32 intptr_t;
.................... #else
....................    typedef unsigned int16 uintptr_t;
....................    typedef signed int16 intptr_t;
.................... #endif
.................... 
.................... #define INT8_C(val) ((int8_t)val)
.................... #define UINT8_C(val) ((uint8_t)val)
.................... #define INT16_C(val) ((int16_t)val)
.................... #define UINT16_C(val) ((uint16_t)val)
.................... #define INT32_C(val) ((int32_t)val)
.................... #define UINT32_C(val) ((uint32_t)val)
.................... 
.................... #if defined(__PCD__)
.................... #define INT64_C(val) ((int64_t)val)
.................... #define UINT64_C(val) ((uint64_t)val)
.................... #endif
.................... 
.................... /// TODO:
.................... /// INTPTRN_MIN INTPTRN_MAX UINTPTRN_MAX
.................... 
.................... 
.................... /////////// greatest width (OPTIONAL)
.................... 
.................... #ifdef __PCD__
....................    typedef signed int64 intmax_t;
....................    typedef unsigned int64 uintmax_t;
....................    
....................    #define INTMAXN_MAX  (9223372036854775807)
....................    #define INTMAXN_MIN  (-9223372036854775808)
....................    #define UINTMAXN_MAX (18446744073709551615)
....................    
....................    #define INTMAX_C(value) ((signed int64)val)
....................    #define UINTMAX_C(value) ((unsigned int64)val)
.................... #else
....................    typedef signed int32 intmax_t;
....................    typedef unsigned int32 uintmax_t;
....................    
....................    #define INTMAXN_MAX  (2147483647)
....................    #define INTMAXN_MIN  (-2147483648)
....................    #define UINTMAXN_MAX (4294967295)
....................    
....................    #define INTMAX_C(value) ((signed int32)val)
....................    #define UINTMAX_C(value) ((unsigned int32)val)
.................... #endif
.................... 
.................... 
.................... #endif
.................... 
.................... 
.................... #include <string.h>
.................... ////////////////////////////////////////////////////////////////////////////
.................... ////        (C) Copyright 1996,2008 Custom Computer Services            ////
.................... //// This source code may only be used by licensed users of the CCS C   ////
.................... //// compiler.  This source code may only be distributed to other       ////
.................... //// licensed users of the CCS C compiler.  No other use, reproduction  ////
.................... //// or distribution is permitted without written permission.           ////
.................... //// Derivative programs created using this software in object code     ////
.................... //// form are not restricted in any way.                                ////
.................... ////////////////////////////////////////////////////////////////////////////
.................... 
.................... #ifndef _STRING
.................... #define _STRING
.................... #include <stddef.h>
.................... #include <ctype.h>
.................... 
.................... 
.................... 
.................... //////////////////////////////////////////////
.................... //// Uncomment the following define to    ////
.................... //// allow some functions to use a        ////
.................... //// quicker algorithm, but use more ROM  ////
.................... ////                                      ////
.................... //// #define FASTER_BUT_MORE_ROM          ////
.................... //////////////////////////////////////////////
.................... 
.................... 
.................... 
.................... /*Copying functions*/
.................... /* standard template:
....................    void *memmove(void *s1, void *s2, size_t n).
....................    Copies max of n characters safely (not following ending '\0')
....................    from s2 in s1; if s2 has less than n characters, appends 0 */
.................... 
.................... unsigned char *memmove(void *s1,void *s2,size_t n)
.................... {
....................    unsigned char *sc1;
....................    unsigned char *sc2;
....................    sc1=s1;
....................    sc2=s2;
....................    if(sc2<sc1 && sc1 <sc2 +n)
....................       for(sc1+=n,sc2+=n;0<n;--n)
....................          *--sc1=*--sc2;
....................    else
....................       for(;0<n;--n)
....................          *sc1++=*sc2++;
....................   return s1;
....................   }
.................... 
.................... /* Standard template: char *strcpy(char *s1, const char *s2)
....................    copies the string s2 including the null character to s1.
....................    This is a compiler built in to handle the different address
....................    spaces */
.................... 
.................... #define strcopy strcpy
.................... 
.................... /* standard template:
....................    char *strncpy(char *s1, const char *s2, size_t n).
....................    Copies max of n characters (not following ending '\0')
....................    from s2 in s1; if s2 has less than n characters, appends 0 */
.................... 
.................... char *strncpy(char *s1, char *s2, size_t n)
.................... {
....................   char *s;
.................... 
....................   for (s = s1; n > 0 && *s2 != '\0'; n--)
....................      *s++ = *s2++;
....................   for (; n > 0; n--)
....................      *s++ = '\0';
.................... 
....................   return(s1);
.................... }
.................... /***********************************************************/
.................... 
.................... /*concatenation functions*/
.................... /* standard template: char *strcat(char *s1, const char *s2)
.................... appends s2 to s1*/
.................... 
.................... char *strcat(char *s1, char *s2)
.................... {
....................    unsigned char *s;
.................... 
....................    for (s = s1; *s != '\0'; ++s);
....................    while(*s2 != '\0')
....................    {
....................       *s = *s2;
....................       ++s;
....................       ++s2;
....................    }
.................... 
....................    *s = '\0';
....................    return(s1);
.................... }
.................... /* standard template: char *strncat(char *s1, char *s2,size_t n)
.................... appends not more than n characters from s2 to s1*/
.................... 
.................... char *strncat(char *s1, char *s2, size_t n)
.................... {
....................    char *s;
.................... 
....................    for (s = s1; *s != '\0'; ++s);
....................    while(*s2 != '\0' && 0<n)
....................    {
....................       *s = *s2;
....................       ++s;
....................       ++s2;
....................       --n;
....................    }
.................... 
....................    *s = '\0';
....................    return(s1);
.................... }
.................... 
.................... /***********************************************************/
.................... 
.................... 
.................... /*comparison functions*/
.................... /* standard template: signed int memcmp(void *s1, void *s2).
....................    Compares s1 & s2; returns -1 if s1<s2, 0 if s1=s2, 1 if s1>s2 */
.................... 
.................... signed int memcmp(void * s1,void *s2,size_t n)
.................... {
.................... unsigned char *su1, *su2;
.................... for(su1=s1, su2=s2; 0<n; ++su1, ++su2, --n)
.................... {
....................    if(*su1!=*su2)
....................       return ((*su1<*su2)?-1:1);
.................... }
.................... return 0;
.................... }
.................... 
.................... /* standard template: int strcmp(const char *s1, const char *s2).
....................    Compares s1 & s2; returns -1 if s1<s2, 0 if s1=s2, 1 if s1>s2 */
.................... 
.................... signed int strcmp(char *s1, char *s2)
.................... {
....................    for (; *s1 == *s2; s1++, s2++)
....................       if (*s1 == '\0')
....................          return(0);
....................    return((*s1 < *s2) ? -1: 1);
.................... }
.................... /* standard template: int strcoll(const char *s1, const char *s2).
....................    Compares s1 & s2; returns -1 if s1<s2, 0 if s1=s2, 1 if s1>s2 */
.................... 
.................... signed int strcoll(char *s1, char *s2)
.................... {
....................    for (; *s1 == *s2; s1++, s2++)
....................       if (*s1 == '\0')
....................          return(0);
....................    return((*s1 < *s2) ? -1: 1);
.................... }
.................... 
.................... /* standard template:
....................    int strncmp(const char *s1, const char *s2, size_t n).
....................    Compares max of n characters (not following 0) from s1 to s2;
....................    returns same as strcmp */
.................... 
.................... signed int strncmp(char *s1, char *s2, size_t n)
.................... {
....................    for (; n > 0; s1++, s2++, n--)
....................       if (*s1 != *s2)
....................          return((*s1 <*s2) ? -1: 1);
....................       else if (*s1 == '\0')
....................          return(0);
....................    return(0);
.................... }
.................... /* standard template:
....................    int strxfrm(const char *s1, const char *s2, size_t n).
....................    transforms maximum of n characters from s2 and places them into s1, returns number of chars written ot s1.
....................    if s1 is NULL and n is 0, then it returns the length of s2.*/
.................... size_t strxfrm(char *s1, char *s2, size_t n)
.................... {
....................    char c;
....................    size_t n1;
....................    
....................    if (!s1 && !n)
....................       n = -1; //find length
.................... 
....................    n1 = 0;
....................    
....................    for (; n1 < n; n1++)
....................    {
....................       c = *s2++;
....................       if (!c)
....................          break;
....................       if (s1)
....................          *s1++ = c;
....................    }
.................... 
....................   return(n1);
.................... }
.................... 
.................... 
.................... 
.................... 
.................... 
.................... /***********************************************************/
.................... /*Search functions*/
.................... /* standard template: void *memchr(const char *s, int c).
....................    Finds first occurrence of c in n characters of s */
.................... 
.................... char *memchr(void *s,unsigned int8 c,size_t n)
.................... {
....................    char uc;
....................    char *su;
....................    uc=c;
....................    for(su=s;0<n;++su,--n)
....................       if(*su==uc)
....................       return su;
....................    return NULL;
.................... }
.................... 
.................... /* standard template: char *strchr(const char *s, int c).
....................    Finds first occurrence of c in s */
.................... 
.................... char *strchr(char *s, char c)
.................... {
....................    for (; *s != c; s++)
....................       if (*s == '\0')
....................          return(0);
....................    return(s);
.................... }
.................... /* standard template:
....................    size_t strcspn(const char *s1, const char *s2).
....................    Computes length of max initial segment of s1 that
....................    consists entirely of characters NOT from s2*/
.................... 
.................... size_t strcspn(char *s1, char *s2)
.................... {
....................    char *sc1, *sc2;
.................... 
....................    for (sc1 = s1; *sc1 != 0; sc1++)
....................       for (sc2 = s2; *sc2 != 0; sc2++)
....................          if (*sc1 == *sc2)
....................             return(sc1 - s1);
....................    return(sc1 - s1);
.................... }
.................... /* standard template:
....................    char *strpbrk(const char *s1, const char *s2).
....................    Locates first occurence of any character from s2 in s1;
....................    returns s1 if s2 is empty string */
.................... 
.................... char *strpbrk(char *s1, char *s2)
.................... {
....................    char *sc1, *sc2;
.................... 
....................    for (sc1 = s1; *sc1 != 0; sc1++)
....................       for (sc2 = s2; *sc2 != 0; sc2++)
....................          if (*sc1 == *sc2)
....................             return(sc1);
....................    return(0);
.................... }
.................... 
.................... 
.................... /* standard template: char *strrchr(const char *s, int c).
....................    Finds last occurrence of c in s */
.................... 
.................... char *strrchr(char *s, char c)
.................... {
....................    char *p;
.................... 
....................    for (p = 0; ; s++)
....................    {
....................       if (*s == c)
....................          p = s;
....................       if (*s == '\0')
....................          return(p);
....................    }
.................... }
.................... /* computes length of max initial segment of s1 consisting
....................    entirely of characters from s2 */
.................... 
.................... size_t strspn(char *s1, char *s2)
.................... {
....................    char *sc1, *sc2;
.................... 
....................    for (sc1 = s1; *sc1 != 0; sc1++)
....................       for (sc2 = s2; ; sc2++)
....................     if (*sc2 == '\0')
....................        return(sc1 - s1);
....................          else if (*sc1 == *sc2)
....................             break;
....................    return(sc1 - s1);
.................... }
.................... /* standard template:
....................    char *strstr(const char *s1, const char *s2);
....................    Locates first occurence of character sequence s2 in s1;
....................    returns 0 if s2 is empty string
.................... 
....................    Uncomment #define FASTER_BUT_MORE_ROM at the top of the
....................    file to use the faster algorithm */
.................... char *strstr(char *s1, char *s2)
.................... {
....................    char *s, *t;
.................... 
....................    #ifdef FASTER_BUT_MORE_ROM
....................    if (*s2 == '\0')
....................          return(s1);
....................    #endif
.................... 
....................    while (*s1)
....................    {
....................       for(s = s1, t = s2; *t && (*s == *t); ++s, ++t);
.................... 
....................       if (*t == '\0')
....................          return s1;
....................       ++s1;
....................       #ifdef FASTER_BUT_MORE_ROM
....................          while(*s1 != '\0' && *s1 != *s2)
....................             ++s1;
....................       #endif
....................    }
....................    return 0;
.................... }
.................... 
.................... /* standard template: size_t strlen(const char *s).
....................    Computes length of s1 (preceding terminating 0) */
.................... 
.................... size_t strlen(char *s)
.................... {
....................    char *sc;
.................... 
....................    for (sc = s; *sc != 0; sc++);
....................    return(sc - s);
.................... }
.................... 
.................... /* standard template: char *strtok(char *s1, const char *s2).
.................... 
....................    Finds next token in s1 delimited by a character from separator
....................    string s2 (which can be different from call to call).  First call
....................    starts at beginning of s1 searching for first character NOT
....................    contained in s2; returns 0 if none is found.
....................    If one is found, it is the start of first token (return value).
....................    Function then searches from there for a character contained in s2.
....................    If none is found, current token extends to end of s1, and subsequent
....................    searches for a token will return 0.  If one is found, it is
....................    overwritten by '\0', which terminates current token.  Function saves
....................    pointer to following character from which next search will start.
....................    Each subsequent call, with 0 as first argument, starts searching
....................    from saved pointer */
.................... 
.................... char *strtok(char *s1, char *s2)
.................... {
....................    char *beg, *end;
....................    static char *save;
.................... 
....................    beg = (s1)? s1: save;
....................    beg += strspn(beg, s2);
....................    if (*beg == '\0')
....................       return(0);
....................       
....................    end = strpbrk(beg, s2);
....................    if (end != '\0')
....................    {
....................       *end = '\0';
....................       end++;
....................       save = end;
....................    }
....................    else
....................       save = beg + strlen(beg);
....................    
....................    return(beg);
.................... }
.................... 
.................... /*****************************************************************/
.................... /*Miscellaneous functions*/
.................... /* standard template
.................... maps error number in errnum to an error message string
.................... Returns: Pointer to string
.................... */
.................... #ifdef _ERRNO
.................... char * strerror(unsigned int8 errnum)
.................... {
.................... static unsigned char s[13];
.................... switch( errnum)
.................... {
.................... case 0:
....................    strcpy(s,"no errors");
....................    return s;
.................... case EDOM :
....................    strcpy(s,"domain error");
....................    return s;
.................... case ERANGE:
....................    strcpy(s,"range error");
....................    return s;
.................... }
.................... }
.................... #ENDIF
.................... 
.................... /* standard template: size_t stricmp(const char *s1, const char *s2).
....................    Compares s1 to s2 ignoring case (upper vs. lower) */
.................... 
.................... signed int stricmp(char *s1, char *s2)
.................... {
....................  for(; *s1==*s2||(isalpha(*s1)&&isalpha(*s2)&&((char)*s1==(char)*s2+(char)32||(char)*s2==(char)*s1+(char)32));
....................     s1++, s2++)
....................     if (*s1 == '\0')
....................        return(0);
....................  return((*s1 < *s2) ? -1: 1);
.................... }
.................... 
.................... 
.................... /* standard template: char *strlwr(char *s).
....................    Replaces uppercase letters by lowercase;
....................    returns pointer to new string s */
.................... 
.................... char *strlwr(char *s)
.................... {
....................    char *p;
.................... 
....................    for (p = s; *p != '\0'; p++)
....................       if (*p >= 'A' && *p <='Z')
....................          *p += 'a' - 'A';
....................    return(s);
.................... }
.................... 
.................... /* standard template: char *strupr(char *s).
....................    Replaces lowercase letters by upercase;
....................    returns pointer to new string s */
.................... 
.................... char *strupr(char *s)
.................... {
....................    char *p;
.................... 
....................    for (p = s; *p != '\0'; p++)
....................       if (*p >= 'a' && *p <='z')
....................          *p -= 'a' - 'A';
....................    return(s);
.................... }
.................... 
.................... 
.................... /************************************************************/
.................... 
.................... 
.................... #endif
.................... 
.................... 
.................... // ============================================================================
.................... // PICLOG е®ҡж•°е®ҡзҫ©
.................... // ============================================================================
.................... #define PICLOG_STARTUP     0x00
.................... #define PICLOG_PARAM_START 0x00
.................... #define PICLOG_PARAM_END   0xFF
.................... 
.................... #define PICLOG_PACKET_SIZE 6
.................... #define PICLOG_BLANK_SIZE  4
.................... 
.................... // ============================================================================
.................... // PICLOG гғҮгғјгӮҝж§ӢйҖ дҪ“ (6 Byte)
.................... // ============================================================================
.................... typedef union
.................... {
....................     struct
....................     {
....................         uint32_t time;       // 4 Byte: гӮҝгӮӨгғ гӮ№гӮҝгғігғ—
....................         uint8_t  function;   // 1 Byte: е®ҹиЎҢй–ўж•°гғ»гӮӨгғҷгғігғҲID
....................         uint8_t  parameter;  // 1 Byte: гғ‘гғ©гғЎгғјгӮҝгғ»зҠ¶ж…Ӣ
....................     } fields;
....................     uint8_t bytes[PICLOG_PACKET_SIZE];
.................... } PICLOG_t;
.................... 
.................... // ============================================================================
.................... // еӨ–йғЁе…¬й–Ӣй–ўж•°гғ—гғӯгғҲгӮҝгӮӨгғ—
.................... // ============================================================================
.................... 
.................... // гғӯгӮ°гӮ’дҪңжҲҗгҒ—гҖҒгғ•гғ©гғғгӮ·гғҘгғЎгғўгғӘгҒ«жӣёгҒҚиҫјгӮҖ
.................... // function: гӮӨгғҷгғігғҲID
.................... // parameter: зҠ¶ж…Ӣгғ‘гғ©гғЎгғјгӮҝ
.................... void piclog_make(uint8_t function, uint8_t parameter);
.................... 
.................... #endif // son_tmp_PICLOG_H
.................... 
.................... 
.................... // гғ¬гғҷгғ«7: гӮўгғ—гғӘгӮұгғјгӮ·гғ§гғігғҳгғғгғҖгғј
.................... #include "../application/mission/son_tmp_excute_mission.h"
.................... #ifndef SON_TMP_EXCUTE_MISSION_H
.................... #define SON_TMP_EXCUTE_MISSION_H
.................... 
.................... #include <stdint.h>
.................... ///////////////////////////////////////////////////////////////////////////
.................... ////                                                                   ////
.................... ////                           stdint.h                                ////
.................... ////                                                                   ////
.................... //// Standard integer definitions.                                     ////
.................... ////                                                                   ////
.................... ///////////////////////////////////////////////////////////////////////////
.................... ////        (C) Copyright 1996,2008 Custom Computer Services           ////
.................... //// This source code may only be used by licensed users of the CCS C  ////
.................... //// compiler.  This source code may only be distributed to other      ////
.................... //// licensed users of the CCS C compiler.  No other use, reproduction ////
.................... //// or distribution is permitted without written permission.          ////
.................... //// Derivative programs created using this software in object code    ////
.................... //// form are not restricted in any way.                               ////
.................... ///////////////////////////////////////////////////////////////////////////
.................... 
.................... #ifndef _STDINT
.................... 
.................... #define _STDINT
.................... 
.................... //////////// exact width
.................... 
.................... typedef signed int8 int8_t;
.................... typedef unsigned int8 uint8_t;
.................... typedef signed int16 int16_t;
.................... typedef unsigned int16 uint16_t;
.................... typedef signed int32 int32_t;
.................... typedef unsigned int32 uint32_t;
.................... 
.................... #if defined(__PCD__)
.................... //typedef signed int24 int24_t;
.................... //typedef unsigned int24 uint24_t;
.................... typedef signed int64 int64_t;
.................... typedef unsigned int64 uint64_t;
.................... #endif
.................... 
.................... #define INT8_MAX  (127)
.................... #define INT8_MIN  (-128)
.................... #define UINT8_MAX (255)
.................... 
.................... #define INT16_MAX  (32767)
.................... #define INT16_MIN  (-32768)
.................... #define UINT16_MAX (65535)
.................... 
.................... #define INT32_MAX  (2147483647)
.................... #define INT32_MIN  (-2147483648)
.................... #define UINT32_MAX (4294967295)
.................... 
.................... #if defined(__PCD__)
.................... //#define INT24_MAX  (8388607)
.................... //#define INT24_MIN  (-8388608)
.................... //#define UINT24_MAX (16777215)
.................... 
.................... #define INT64_MAX  (9223372036854775807)
.................... #define INT64_MIN  (-9223372036854775808)
.................... #define UINT64_MAX (18446744073709551615)
.................... #endif
.................... 
.................... ///////// minimum width
.................... 
.................... typedef signed int8 int_least8_t;
.................... typedef unsigned int8 uint_least8_t;
.................... typedef signed int16 int_least16_t;
.................... typedef unsigned int16 uint_least16_t;
.................... typedef signed int32 int_least32_t;
.................... typedef unsigned int32 uint_least32_t;
.................... 
.................... #if defined(__PCD__)
.................... //typedef signed int24 int_least24_t;
.................... //typedef unsigned int24 uint_least24_t;
.................... typedef signed int64 int_least64_t;
.................... typedef unsigned int64 uint_least64_t;
.................... #endif
.................... 
.................... #define INT_LEAST8_MAX  (127)
.................... #define INT_LEAST8_MIN  (-128)
.................... #define UINT_LEAST8_MAX (255)
.................... 
.................... #define INT_LEAST16_MAX  (32767)
.................... #define INT_LEAST16_MIN  (-32768)
.................... #define UINT_LEAST16_MAX (65535)
.................... 
.................... #define INT_LEAST32_MAX  (2147483647)
.................... #define INT_LEAST32_MIN  (-2147483648)
.................... #define UINT_LEAST32_MAX (4294967295)
.................... 
.................... #if defined(__PCD__)
.................... //#define INT_LEAST24_MAX  (8388607)
.................... //#define INT_LEAST24_MIN  (-8388608)
.................... //#define UINT_LEAST24_MAX (16777215)
.................... 
.................... #define INT_LEAST64_MAX  (9223372036854775807)
.................... #define INT_LEAST64_MIN  (-9223372036854775808)
.................... #define UINT_LEAST64_MAX (18446744073709551615)
.................... #endif
.................... 
.................... ///////// fastest width
.................... 
.................... #if defined(__PCD__)
.................... typedef signed int16 int_fast8_t;
.................... typedef unsigned int16 uint_fast8_t;
.................... #define INT_FAST8_MAX  (32767)
.................... #define INT_FAST8_MIN  (-32768)
.................... #define UINT_FAST8_MAX (65535)
.................... typedef signed int16 int_fast16_t;
.................... typedef unsigned int16 uint_fast16_t;
.................... //typedef signed int24 int_fast24_t;
.................... //typedef unsigned int24 uint_fast24_t;
.................... typedef signed int64 int_fast64_t;
.................... typedef unsigned int64 uint_fast64_t;
.................... #else
.................... typedef signed int8 int_fast8_t;
.................... typedef unsigned int8 uint_fast8_t;
.................... #define INT_FAST8_MAX  (127)
.................... #define INT_FAST8_MIN  (-128)
.................... #define UINT_FAST8_MAX (255)
.................... typedef signed int16 int_fast16_t;
.................... typedef unsigned int16 uint_fast16_t;
.................... #endif
.................... 
.................... typedef signed int32 int_fast32_t;
.................... typedef unsigned int32 uint_fast32_t;
.................... 
.................... #define INT_FAST16_MAX  (32767)
.................... #define INT_FAST16_MIN  (-32768)
.................... #define UINT_FAST16_MAX (65535)
.................... 
.................... #define INT_FAST32_MAX  (2147483647)
.................... #define INT_FAST32_MIN  (-2147483648)
.................... #define UINT_FAST32_MAX (4294967295)
.................... 
.................... #if defined(__PCD__)
.................... //#define INT_FAST24_MAX  (8388607)
.................... //#define INT_FAST24_MIN  (-8388608)
.................... //#define UINT_FAST24_MAX (16777215)
.................... 
.................... #define INT_FAST64_MAX  (9223372036854775807)
.................... #define INT_FAST64_MIN  (-9223372036854775808)
.................... #define UINT_FAST64_MAX (18446744073709551615)
.................... #endif
.................... 
.................... //////////// big enough to hold pointers (OPTIONAL)
.................... 
.................... #if defined(__PCD__)
....................    typedef unsigned int32 uintptr_t;
....................    typedef signed int32 intptr_t;
.................... #else
....................    typedef unsigned int16 uintptr_t;
....................    typedef signed int16 intptr_t;
.................... #endif
.................... 
.................... #define INT8_C(val) ((int8_t)val)
.................... #define UINT8_C(val) ((uint8_t)val)
.................... #define INT16_C(val) ((int16_t)val)
.................... #define UINT16_C(val) ((uint16_t)val)
.................... #define INT32_C(val) ((int32_t)val)
.................... #define UINT32_C(val) ((uint32_t)val)
.................... 
.................... #if defined(__PCD__)
.................... #define INT64_C(val) ((int64_t)val)
.................... #define UINT64_C(val) ((uint64_t)val)
.................... #endif
.................... 
.................... /// TODO:
.................... /// INTPTRN_MIN INTPTRN_MAX UINTPTRN_MAX
.................... 
.................... 
.................... /////////// greatest width (OPTIONAL)
.................... 
.................... #ifdef __PCD__
....................    typedef signed int64 intmax_t;
....................    typedef unsigned int64 uintmax_t;
....................    
....................    #define INTMAXN_MAX  (9223372036854775807)
....................    #define INTMAXN_MIN  (-9223372036854775808)
....................    #define UINTMAXN_MAX (18446744073709551615)
....................    
....................    #define INTMAX_C(value) ((signed int64)val)
....................    #define UINTMAX_C(value) ((unsigned int64)val)
.................... #else
....................    typedef signed int32 intmax_t;
....................    typedef unsigned int32 uintmax_t;
....................    
....................    #define INTMAXN_MAX  (2147483647)
....................    #define INTMAXN_MIN  (-2147483648)
....................    #define UINTMAXN_MAX (4294967295)
....................    
....................    #define INTMAX_C(value) ((signed int32)val)
....................    #define UINTMAX_C(value) ((unsigned int32)val)
.................... #endif
.................... 
.................... 
.................... #endif
.................... 
.................... 
.................... #include <stdbool.h>
.................... ///////////////////////////////////////////////////////////////////////////
.................... ////                                                                   ////
.................... ////                          stdbool.h                                ////
.................... ////                                                                   ////
.................... //// Standard boolean definitions                                      ////
.................... ////                                                                   ////
.................... ///////////////////////////////////////////////////////////////////////////
.................... ////        (C) Copyright 1996,2012 Custom Computer Services           ////
.................... //// This source code may only be used by licensed users of the CCS C  ////
.................... //// compiler.  This source code may only be distributed to other      ////
.................... //// licensed users of the CCS C compiler.  No other use, reproduction ////
.................... //// or distribution is permitted without written permission.          ////
.................... //// Derivative programs created using this software in object code    ////
.................... //// form are not restricted in any way.                               ////
.................... ///////////////////////////////////////////////////////////////////////////
.................... 
.................... #ifndef __STDBOOL_H__
.................... #define __STDBOOL_H__
.................... 
.................... #if !getenv("CASE")
....................    // remove TRUE and FALSE added by CCS's device .h file, only if
....................    // compiler has case sensitivty off.
.................... 
....................    #if defined(TRUE)
....................       #undef TRUE
....................    #endif
....................    
....................    #if defined(FALSE)
....................       #undef FALSE
....................    #endif
.................... #endif
.................... 
.................... typedef int1   bool;
.................... #define true   1
.................... #define false  0
.................... #define __bool_true_false_are_defined  1
.................... 
.................... #endif
.................... 
.................... 
.................... #include "../../system/son_tmp_config.h"
.................... #ifndef son_tmp_CONFIG_H
.................... #define son_tmp_CONFIG_H
.................... 
.................... #define SELF_DEVICE_ID CIGS_PIC
.................... 
.................... #include <18F67J94.h>
.................... #opt 0 // 0 = no optimization
.................... 
.................... #use delay(crystal=16MHz)
.................... #fuses HS, NOWDT, NOBROWNOUT, NOPROTECT
.................... 
.................... #define PIC18
.................... 
.................... #ifdef PIC18
....................     // ==========================================
....................     // 1. гғҸгғјгғүгӮҰгӮ§гӮўж§ӢжҲҗгҒЁгғ”гғігӮўгӮөгӮӨгғі
....................     // ==========================================
.................... 
....................     #define PIN_LDO_EN          PIN_E1
....................     #define PIN_VREF_EN         PIN_E0
....................     #define PIN_LED1            PIN_A5
....................     #define PIN_LED2            PIN_A1
.................... 
....................     #define PIN_SW_DIO1         PIN_C1
....................     #define PIN_SW_DIO0         PIN_C2
.................... 
....................     // SPI Chip Select (BOSSгғҳгғғгғҖеҗҚз§°гҒ«йҒ©еҗҲ)
....................     #define MIS_FM_CS           PIN_B1
....................     #define SMF_CS              PIN_D4
....................     #define PIN_CS_ADC          PIN_B3
.................... 
.................... // ------------------------------------------
....................     // UART йҖҡдҝЎиЁӯе®ҡ (еј·еҲ¶гӮҪгғ•гғҲгӮҰгӮ§гӮўеҲ¶еҫЎ)
....................     // ------------------------------------------
....................     #use rs232(baud=9600, parity=N, xmit=PIN_G0, bits=8, stream=PC, FORCE_SW, ERRORS)
....................     #use rs232(baud=9600, parity=N, xmit=PIN_D1, rcv=PIN_D0, bits=8, stream=BOSS, FORCE_SW, ERRORS)
.................... 
....................     // ------------------------------------------
....................     // SPI йҖҡдҝЎиЁӯе®ҡ (еј·еҲ¶гӮҪгғ•гғҲгӮҰгӮ§гӮўеҲ¶еҫЎ)
....................     // ------------------------------------------
....................     #use spi(MASTER, BAUD=1000000, MODE=0, BITS=8, DI=PIN_B5, DO=PIN_B4, CLK=PIN_B2, stream=MIS_FM_STREAM, FORCE_SW)
....................     #use spi(MASTER, BAUD=1000000, MODE=0, BITS=8, DI=PIN_D6, DO=PIN_D7, CLK=PIN_D5, stream=SMF_STREAM, FORCE_SW)
.................... 
.................... #endif
.................... 
.................... // ==========================================
.................... // 2. гӮ·гӮ№гғҶгғ гӮ·гғјгӮұгғігӮ№ гӮігғһгғігғүе®ҡзҫ©
.................... // ==========================================
.................... #define CMD_MISSION_START       0x10
.................... #define RES_MISSION_DONE        0x11
.................... #define CMD_SMF_PREPARE         0x20
.................... #define REQ_SMF_COPY            0x21
.................... #define CMD_SMF_PERMIT          0x22
.................... #define REQ_POWER_OFF           0x30
.................... 
.................... // ==========================================
.................... // 3. гғҮгғјгӮҝгғ•гӮ©гғјгғһгғғгғҲгғ»гғҗгғғгғ•гӮЎе®ҡзҫ©
.................... // ==========================================
.................... #define PACKET_SIZE             64
.................... #define FLASH_PAGE_SIZE         256
.................... #define PACKETS_PER_PAGE        4
.................... #define SMF_TRANSFER_PACKETS    15
.................... 
.................... // гғҳгғғгғҖгғјж§ӢйҖ дҪ“ (8Byte)
.................... typedef struct
.................... {
....................     unsigned int32 timestamp;      // 4 Byte
....................     unsigned int8  mode : 3;       // 3 bit
....................     unsigned int8  channel : 1;    // 1 bit
....................     unsigned int8  samplingRate : 4; // 4 bit
....................     unsigned int16 dataCount;      // 12bitгҒ§гҒҜгҒӘгҒҸ16bit(2Byte)гҒ§зўәдҝқгҒ—гӮЁгғ©гғјгӮ’еӣһйҒҝ
....................     unsigned int8  zeroFill;       // 1 Byte (еҗҲиЁҲ8ByteгҒ«гҒҷгӮӢгҒҹгӮҒ)
.................... } PacketHeader;
.................... 
.................... typedef struct
.................... {
....................     PacketHeader header;           // 8 Byte
....................     unsigned int8 packetNum;       // 1 Byte
....................     unsigned int16 adcData[27];    // 54 Byte
....................     unsigned int8 crc8;            // 1 Byte
.................... } FirstPacket;
.................... 
.................... typedef struct
.................... {
....................     unsigned int8 packetNum;       // 1 Byte
....................     unsigned int16 adcData[31];    // 62 Byte
....................     unsigned int8 crc8;            // 1 Byte
.................... } SubsequentPacket;
.................... 
.................... typedef union
.................... {
....................     unsigned int8 raw[PACKET_SIZE];
....................     FirstPacket first;
....................     SubsequentPacket sub;
.................... } PacketBuffer;
.................... 
.................... #endif // son_tmp_CONFIG_H
.................... 
.................... #include "../../../lib/communication/value_status.h"
.................... #ifndef VALUE_STATUS_H
.................... #define VALUE_STATUS_H
.................... 
.................... // there is used in main.c and mission
.................... 
.................... extern unsigned int8 status;
.................... extern int1 is_use_smf_req_in_mission;
.................... 
.................... //volatile int1 is_use_smf_req_in_mission = FALSE;
.................... //volatile int8 status[4] = {IDLE, 0, 0, 0};
.................... 
.................... 
.................... #endif
.................... 
.................... 
.................... #include "../../../lib/communication/typedef_content.h" // Commandж§ӢйҖ дҪ“гӮ’дҪҝгҒҶгҒҹгӮҒгҒ«иҝҪеҠ 
.................... #ifndef TYPEDEF_CONTENT_H
.................... #define TYPEDEF_CONTENT_H
.................... 
.................... // there is used in main.c
.................... 
.................... typedef enum {
....................     EXECUTING_MISSION = 0x02,
....................     IDLE              = 0x03,
....................     SMF_USE_REQ       = 0x04,
....................     COPYING           = 0x05,
....................     FINISHED          = 0x06
.................... } MisMcuStatusContent;
.................... 
.................... 
.................... typedef enum {
....................     ALLOW = 0x01,
....................     DENY  = 0x00
.................... } IsSmfAvailableContent;
.................... 
.................... 
.................... #endif
.................... 
.................... 
.................... 
.................... // ============================================================================
.................... // й–ўж•°гғ—гғӯгғҲгӮҝгӮӨгғ—
.................... // ============================================================================
.................... void cigs_system_init(void);
.................... 
.................... // гғҗгғғгғ•гӮЎгӮ’зӣҙжҺҘиӘӯгӮҖгҒ®гҒ§гҒҜгҒӘгҒҸгҖҒи§ЈжһҗжёҲгҒҝгҒ®CommandгӮ’еј•ж•°гҒ§еҸ—гҒ‘еҸ–гӮӢгӮҲгҒҶгҒ«еӨүжӣҙ
.................... void execute_mission_command(Command* cmd);
.................... 
.................... #endif // SON_TMP_EXCUTE_MISSION_H
.................... 
.................... #include "../application/mission/son_tmp_mode_mission.h"
.................... #ifndef son_tmp_MODE_MISSION_H
.................... #define son_tmp_MODE_MISSION_H
.................... 
.................... #include <stdint.h>
.................... ///////////////////////////////////////////////////////////////////////////
.................... ////                                                                   ////
.................... ////                           stdint.h                                ////
.................... ////                                                                   ////
.................... //// Standard integer definitions.                                     ////
.................... ////                                                                   ////
.................... ///////////////////////////////////////////////////////////////////////////
.................... ////        (C) Copyright 1996,2008 Custom Computer Services           ////
.................... //// This source code may only be used by licensed users of the CCS C  ////
.................... //// compiler.  This source code may only be distributed to other      ////
.................... //// licensed users of the CCS C compiler.  No other use, reproduction ////
.................... //// or distribution is permitted without written permission.          ////
.................... //// Derivative programs created using this software in object code    ////
.................... //// form are not restricted in any way.                               ////
.................... ///////////////////////////////////////////////////////////////////////////
.................... 
.................... #ifndef _STDINT
.................... 
.................... #define _STDINT
.................... 
.................... //////////// exact width
.................... 
.................... typedef signed int8 int8_t;
.................... typedef unsigned int8 uint8_t;
.................... typedef signed int16 int16_t;
.................... typedef unsigned int16 uint16_t;
.................... typedef signed int32 int32_t;
.................... typedef unsigned int32 uint32_t;
.................... 
.................... #if defined(__PCD__)
.................... //typedef signed int24 int24_t;
.................... //typedef unsigned int24 uint24_t;
.................... typedef signed int64 int64_t;
.................... typedef unsigned int64 uint64_t;
.................... #endif
.................... 
.................... #define INT8_MAX  (127)
.................... #define INT8_MIN  (-128)
.................... #define UINT8_MAX (255)
.................... 
.................... #define INT16_MAX  (32767)
.................... #define INT16_MIN  (-32768)
.................... #define UINT16_MAX (65535)
.................... 
.................... #define INT32_MAX  (2147483647)
.................... #define INT32_MIN  (-2147483648)
.................... #define UINT32_MAX (4294967295)
.................... 
.................... #if defined(__PCD__)
.................... //#define INT24_MAX  (8388607)
.................... //#define INT24_MIN  (-8388608)
.................... //#define UINT24_MAX (16777215)
.................... 
.................... #define INT64_MAX  (9223372036854775807)
.................... #define INT64_MIN  (-9223372036854775808)
.................... #define UINT64_MAX (18446744073709551615)
.................... #endif
.................... 
.................... ///////// minimum width
.................... 
.................... typedef signed int8 int_least8_t;
.................... typedef unsigned int8 uint_least8_t;
.................... typedef signed int16 int_least16_t;
.................... typedef unsigned int16 uint_least16_t;
.................... typedef signed int32 int_least32_t;
.................... typedef unsigned int32 uint_least32_t;
.................... 
.................... #if defined(__PCD__)
.................... //typedef signed int24 int_least24_t;
.................... //typedef unsigned int24 uint_least24_t;
.................... typedef signed int64 int_least64_t;
.................... typedef unsigned int64 uint_least64_t;
.................... #endif
.................... 
.................... #define INT_LEAST8_MAX  (127)
.................... #define INT_LEAST8_MIN  (-128)
.................... #define UINT_LEAST8_MAX (255)
.................... 
.................... #define INT_LEAST16_MAX  (32767)
.................... #define INT_LEAST16_MIN  (-32768)
.................... #define UINT_LEAST16_MAX (65535)
.................... 
.................... #define INT_LEAST32_MAX  (2147483647)
.................... #define INT_LEAST32_MIN  (-2147483648)
.................... #define UINT_LEAST32_MAX (4294967295)
.................... 
.................... #if defined(__PCD__)
.................... //#define INT_LEAST24_MAX  (8388607)
.................... //#define INT_LEAST24_MIN  (-8388608)
.................... //#define UINT_LEAST24_MAX (16777215)
.................... 
.................... #define INT_LEAST64_MAX  (9223372036854775807)
.................... #define INT_LEAST64_MIN  (-9223372036854775808)
.................... #define UINT_LEAST64_MAX (18446744073709551615)
.................... #endif
.................... 
.................... ///////// fastest width
.................... 
.................... #if defined(__PCD__)
.................... typedef signed int16 int_fast8_t;
.................... typedef unsigned int16 uint_fast8_t;
.................... #define INT_FAST8_MAX  (32767)
.................... #define INT_FAST8_MIN  (-32768)
.................... #define UINT_FAST8_MAX (65535)
.................... typedef signed int16 int_fast16_t;
.................... typedef unsigned int16 uint_fast16_t;
.................... //typedef signed int24 int_fast24_t;
.................... //typedef unsigned int24 uint_fast24_t;
.................... typedef signed int64 int_fast64_t;
.................... typedef unsigned int64 uint_fast64_t;
.................... #else
.................... typedef signed int8 int_fast8_t;
.................... typedef unsigned int8 uint_fast8_t;
.................... #define INT_FAST8_MAX  (127)
.................... #define INT_FAST8_MIN  (-128)
.................... #define UINT_FAST8_MAX (255)
.................... typedef signed int16 int_fast16_t;
.................... typedef unsigned int16 uint_fast16_t;
.................... #endif
.................... 
.................... typedef signed int32 int_fast32_t;
.................... typedef unsigned int32 uint_fast32_t;
.................... 
.................... #define INT_FAST16_MAX  (32767)
.................... #define INT_FAST16_MIN  (-32768)
.................... #define UINT_FAST16_MAX (65535)
.................... 
.................... #define INT_FAST32_MAX  (2147483647)
.................... #define INT_FAST32_MIN  (-2147483648)
.................... #define UINT_FAST32_MAX (4294967295)
.................... 
.................... #if defined(__PCD__)
.................... //#define INT_FAST24_MAX  (8388607)
.................... //#define INT_FAST24_MIN  (-8388608)
.................... //#define UINT_FAST24_MAX (16777215)
.................... 
.................... #define INT_FAST64_MAX  (9223372036854775807)
.................... #define INT_FAST64_MIN  (-9223372036854775808)
.................... #define UINT_FAST64_MAX (18446744073709551615)
.................... #endif
.................... 
.................... //////////// big enough to hold pointers (OPTIONAL)
.................... 
.................... #if defined(__PCD__)
....................    typedef unsigned int32 uintptr_t;
....................    typedef signed int32 intptr_t;
.................... #else
....................    typedef unsigned int16 uintptr_t;
....................    typedef signed int16 intptr_t;
.................... #endif
.................... 
.................... #define INT8_C(val) ((int8_t)val)
.................... #define UINT8_C(val) ((uint8_t)val)
.................... #define INT16_C(val) ((int16_t)val)
.................... #define UINT16_C(val) ((uint16_t)val)
.................... #define INT32_C(val) ((int32_t)val)
.................... #define UINT32_C(val) ((uint32_t)val)
.................... 
.................... #if defined(__PCD__)
.................... #define INT64_C(val) ((int64_t)val)
.................... #define UINT64_C(val) ((uint64_t)val)
.................... #endif
.................... 
.................... /// TODO:
.................... /// INTPTRN_MIN INTPTRN_MAX UINTPTRN_MAX
.................... 
.................... 
.................... /////////// greatest width (OPTIONAL)
.................... 
.................... #ifdef __PCD__
....................    typedef signed int64 intmax_t;
....................    typedef unsigned int64 uintmax_t;
....................    
....................    #define INTMAXN_MAX  (9223372036854775807)
....................    #define INTMAXN_MIN  (-9223372036854775808)
....................    #define UINTMAXN_MAX (18446744073709551615)
....................    
....................    #define INTMAX_C(value) ((signed int64)val)
....................    #define UINTMAX_C(value) ((unsigned int64)val)
.................... #else
....................    typedef signed int32 intmax_t;
....................    typedef unsigned int32 uintmax_t;
....................    
....................    #define INTMAXN_MAX  (2147483647)
....................    #define INTMAXN_MIN  (-2147483648)
....................    #define UINTMAXN_MAX (4294967295)
....................    
....................    #define INTMAX_C(value) ((signed int32)val)
....................    #define UINTMAX_C(value) ((unsigned int32)val)
.................... #endif
.................... 
.................... 
.................... #endif
.................... 
.................... 
.................... #include "../../system/son_tmp_config.h"
.................... #ifndef son_tmp_CONFIG_H
.................... #define son_tmp_CONFIG_H
.................... 
.................... #define SELF_DEVICE_ID CIGS_PIC
.................... 
.................... #include <18F67J94.h>
.................... #opt 0 // 0 = no optimization
.................... 
.................... #use delay(crystal=16MHz)
.................... #fuses HS, NOWDT, NOBROWNOUT, NOPROTECT
.................... 
.................... #define PIC18
.................... 
.................... #ifdef PIC18
....................     // ==========================================
....................     // 1. гғҸгғјгғүгӮҰгӮ§гӮўж§ӢжҲҗгҒЁгғ”гғігӮўгӮөгӮӨгғі
....................     // ==========================================
.................... 
....................     #define PIN_LDO_EN          PIN_E1
....................     #define PIN_VREF_EN         PIN_E0
....................     #define PIN_LED1            PIN_A5
....................     #define PIN_LED2            PIN_A1
.................... 
....................     #define PIN_SW_DIO1         PIN_C1
....................     #define PIN_SW_DIO0         PIN_C2
.................... 
....................     // SPI Chip Select (BOSSгғҳгғғгғҖеҗҚз§°гҒ«йҒ©еҗҲ)
....................     #define MIS_FM_CS           PIN_B1
....................     #define SMF_CS              PIN_D4
....................     #define PIN_CS_ADC          PIN_B3
.................... 
.................... // ------------------------------------------
....................     // UART йҖҡдҝЎиЁӯе®ҡ (еј·еҲ¶гӮҪгғ•гғҲгӮҰгӮ§гӮўеҲ¶еҫЎ)
....................     // ------------------------------------------
....................     #use rs232(baud=9600, parity=N, xmit=PIN_G0, bits=8, stream=PC, FORCE_SW, ERRORS)
....................     #use rs232(baud=9600, parity=N, xmit=PIN_D1, rcv=PIN_D0, bits=8, stream=BOSS, FORCE_SW, ERRORS)
.................... 
....................     // ------------------------------------------
....................     // SPI йҖҡдҝЎиЁӯе®ҡ (еј·еҲ¶гӮҪгғ•гғҲгӮҰгӮ§гӮўеҲ¶еҫЎ)
....................     // ------------------------------------------
....................     #use spi(MASTER, BAUD=1000000, MODE=0, BITS=8, DI=PIN_B5, DO=PIN_B4, CLK=PIN_B2, stream=MIS_FM_STREAM, FORCE_SW)
....................     #use spi(MASTER, BAUD=1000000, MODE=0, BITS=8, DI=PIN_D6, DO=PIN_D7, CLK=PIN_D5, stream=SMF_STREAM, FORCE_SW)
.................... 
.................... #endif
.................... 
.................... // ==========================================
.................... // 2. гӮ·гӮ№гғҶгғ гӮ·гғјгӮұгғігӮ№ гӮігғһгғігғүе®ҡзҫ©
.................... // ==========================================
.................... #define CMD_MISSION_START       0x10
.................... #define RES_MISSION_DONE        0x11
.................... #define CMD_SMF_PREPARE         0x20
.................... #define REQ_SMF_COPY            0x21
.................... #define CMD_SMF_PERMIT          0x22
.................... #define REQ_POWER_OFF           0x30
.................... 
.................... // ==========================================
.................... // 3. гғҮгғјгӮҝгғ•гӮ©гғјгғһгғғгғҲгғ»гғҗгғғгғ•гӮЎе®ҡзҫ©
.................... // ==========================================
.................... #define PACKET_SIZE             64
.................... #define FLASH_PAGE_SIZE         256
.................... #define PACKETS_PER_PAGE        4
.................... #define SMF_TRANSFER_PACKETS    15
.................... 
.................... // гғҳгғғгғҖгғјж§ӢйҖ дҪ“ (8Byte)
.................... typedef struct
.................... {
....................     unsigned int32 timestamp;      // 4 Byte
....................     unsigned int8  mode : 3;       // 3 bit
....................     unsigned int8  channel : 1;    // 1 bit
....................     unsigned int8  samplingRate : 4; // 4 bit
....................     unsigned int16 dataCount;      // 12bitгҒ§гҒҜгҒӘгҒҸ16bit(2Byte)гҒ§зўәдҝқгҒ—гӮЁгғ©гғјгӮ’еӣһйҒҝ
....................     unsigned int8  zeroFill;       // 1 Byte (еҗҲиЁҲ8ByteгҒ«гҒҷгӮӢгҒҹгӮҒ)
.................... } PacketHeader;
.................... 
.................... typedef struct
.................... {
....................     PacketHeader header;           // 8 Byte
....................     unsigned int8 packetNum;       // 1 Byte
....................     unsigned int16 adcData[27];    // 54 Byte
....................     unsigned int8 crc8;            // 1 Byte
.................... } FirstPacket;
.................... 
.................... typedef struct
.................... {
....................     unsigned int8 packetNum;       // 1 Byte
....................     unsigned int16 adcData[31];    // 62 Byte
....................     unsigned int8 crc8;            // 1 Byte
.................... } SubsequentPacket;
.................... 
.................... typedef union
.................... {
....................     unsigned int8 raw[PACKET_SIZE];
....................     FirstPacket first;
....................     SubsequentPacket sub;
.................... } PacketBuffer;
.................... 
.................... #endif // son_tmp_CONFIG_H
.................... 
.................... 
.................... // ============================================================================
.................... // еӨ–йғЁе…¬й–Ӣй–ўж•°гғ—гғӯгғҲгӮҝгӮӨгғ—
.................... // ============================================================================
.................... 
.................... // гғҹгғғгӮ·гғ§гғігҒ®е…ЁдҪ“гӮ·гғјгӮұгғігӮ№гӮ’е®ҹиЎҢгҒҷгӮӢ
.................... // гҒ“гҒ“гҒӢгӮү core/measurement/son_tmp_strain.c гҒ®иЁҲжё¬й–ўж•°гӮ’е‘јгҒіеҮәгҒҷ
.................... void execute_mission_sequence(void);
.................... 
.................... #endif // son_tmp_MODE_MISSION_H
.................... 
.................... #include "../application/mission/son_tmp_mode_flash.h"
.................... #ifndef son_tmp_MODE_FLASH_H
.................... #define son_tmp_MODE_FLASH_H
.................... 
.................... #include <stdint.h>
.................... ///////////////////////////////////////////////////////////////////////////
.................... ////                                                                   ////
.................... ////                           stdint.h                                ////
.................... ////                                                                   ////
.................... //// Standard integer definitions.                                     ////
.................... ////                                                                   ////
.................... ///////////////////////////////////////////////////////////////////////////
.................... ////        (C) Copyright 1996,2008 Custom Computer Services           ////
.................... //// This source code may only be used by licensed users of the CCS C  ////
.................... //// compiler.  This source code may only be distributed to other      ////
.................... //// licensed users of the CCS C compiler.  No other use, reproduction ////
.................... //// or distribution is permitted without written permission.          ////
.................... //// Derivative programs created using this software in object code    ////
.................... //// form are not restricted in any way.                               ////
.................... ///////////////////////////////////////////////////////////////////////////
.................... 
.................... #ifndef _STDINT
.................... 
.................... #define _STDINT
.................... 
.................... //////////// exact width
.................... 
.................... typedef signed int8 int8_t;
.................... typedef unsigned int8 uint8_t;
.................... typedef signed int16 int16_t;
.................... typedef unsigned int16 uint16_t;
.................... typedef signed int32 int32_t;
.................... typedef unsigned int32 uint32_t;
.................... 
.................... #if defined(__PCD__)
.................... //typedef signed int24 int24_t;
.................... //typedef unsigned int24 uint24_t;
.................... typedef signed int64 int64_t;
.................... typedef unsigned int64 uint64_t;
.................... #endif
.................... 
.................... #define INT8_MAX  (127)
.................... #define INT8_MIN  (-128)
.................... #define UINT8_MAX (255)
.................... 
.................... #define INT16_MAX  (32767)
.................... #define INT16_MIN  (-32768)
.................... #define UINT16_MAX (65535)
.................... 
.................... #define INT32_MAX  (2147483647)
.................... #define INT32_MIN  (-2147483648)
.................... #define UINT32_MAX (4294967295)
.................... 
.................... #if defined(__PCD__)
.................... //#define INT24_MAX  (8388607)
.................... //#define INT24_MIN  (-8388608)
.................... //#define UINT24_MAX (16777215)
.................... 
.................... #define INT64_MAX  (9223372036854775807)
.................... #define INT64_MIN  (-9223372036854775808)
.................... #define UINT64_MAX (18446744073709551615)
.................... #endif
.................... 
.................... ///////// minimum width
.................... 
.................... typedef signed int8 int_least8_t;
.................... typedef unsigned int8 uint_least8_t;
.................... typedef signed int16 int_least16_t;
.................... typedef unsigned int16 uint_least16_t;
.................... typedef signed int32 int_least32_t;
.................... typedef unsigned int32 uint_least32_t;
.................... 
.................... #if defined(__PCD__)
.................... //typedef signed int24 int_least24_t;
.................... //typedef unsigned int24 uint_least24_t;
.................... typedef signed int64 int_least64_t;
.................... typedef unsigned int64 uint_least64_t;
.................... #endif
.................... 
.................... #define INT_LEAST8_MAX  (127)
.................... #define INT_LEAST8_MIN  (-128)
.................... #define UINT_LEAST8_MAX (255)
.................... 
.................... #define INT_LEAST16_MAX  (32767)
.................... #define INT_LEAST16_MIN  (-32768)
.................... #define UINT_LEAST16_MAX (65535)
.................... 
.................... #define INT_LEAST32_MAX  (2147483647)
.................... #define INT_LEAST32_MIN  (-2147483648)
.................... #define UINT_LEAST32_MAX (4294967295)
.................... 
.................... #if defined(__PCD__)
.................... //#define INT_LEAST24_MAX  (8388607)
.................... //#define INT_LEAST24_MIN  (-8388608)
.................... //#define UINT_LEAST24_MAX (16777215)
.................... 
.................... #define INT_LEAST64_MAX  (9223372036854775807)
.................... #define INT_LEAST64_MIN  (-9223372036854775808)
.................... #define UINT_LEAST64_MAX (18446744073709551615)
.................... #endif
.................... 
.................... ///////// fastest width
.................... 
.................... #if defined(__PCD__)
.................... typedef signed int16 int_fast8_t;
.................... typedef unsigned int16 uint_fast8_t;
.................... #define INT_FAST8_MAX  (32767)
.................... #define INT_FAST8_MIN  (-32768)
.................... #define UINT_FAST8_MAX (65535)
.................... typedef signed int16 int_fast16_t;
.................... typedef unsigned int16 uint_fast16_t;
.................... //typedef signed int24 int_fast24_t;
.................... //typedef unsigned int24 uint_fast24_t;
.................... typedef signed int64 int_fast64_t;
.................... typedef unsigned int64 uint_fast64_t;
.................... #else
.................... typedef signed int8 int_fast8_t;
.................... typedef unsigned int8 uint_fast8_t;
.................... #define INT_FAST8_MAX  (127)
.................... #define INT_FAST8_MIN  (-128)
.................... #define UINT_FAST8_MAX (255)
.................... typedef signed int16 int_fast16_t;
.................... typedef unsigned int16 uint_fast16_t;
.................... #endif
.................... 
.................... typedef signed int32 int_fast32_t;
.................... typedef unsigned int32 uint_fast32_t;
.................... 
.................... #define INT_FAST16_MAX  (32767)
.................... #define INT_FAST16_MIN  (-32768)
.................... #define UINT_FAST16_MAX (65535)
.................... 
.................... #define INT_FAST32_MAX  (2147483647)
.................... #define INT_FAST32_MIN  (-2147483648)
.................... #define UINT_FAST32_MAX (4294967295)
.................... 
.................... #if defined(__PCD__)
.................... //#define INT_FAST24_MAX  (8388607)
.................... //#define INT_FAST24_MIN  (-8388608)
.................... //#define UINT_FAST24_MAX (16777215)
.................... 
.................... #define INT_FAST64_MAX  (9223372036854775807)
.................... #define INT_FAST64_MIN  (-9223372036854775808)
.................... #define UINT_FAST64_MAX (18446744073709551615)
.................... #endif
.................... 
.................... //////////// big enough to hold pointers (OPTIONAL)
.................... 
.................... #if defined(__PCD__)
....................    typedef unsigned int32 uintptr_t;
....................    typedef signed int32 intptr_t;
.................... #else
....................    typedef unsigned int16 uintptr_t;
....................    typedef signed int16 intptr_t;
.................... #endif
.................... 
.................... #define INT8_C(val) ((int8_t)val)
.................... #define UINT8_C(val) ((uint8_t)val)
.................... #define INT16_C(val) ((int16_t)val)
.................... #define UINT16_C(val) ((uint16_t)val)
.................... #define INT32_C(val) ((int32_t)val)
.................... #define UINT32_C(val) ((uint32_t)val)
.................... 
.................... #if defined(__PCD__)
.................... #define INT64_C(val) ((int64_t)val)
.................... #define UINT64_C(val) ((uint64_t)val)
.................... #endif
.................... 
.................... /// TODO:
.................... /// INTPTRN_MIN INTPTRN_MAX UINTPTRN_MAX
.................... 
.................... 
.................... /////////// greatest width (OPTIONAL)
.................... 
.................... #ifdef __PCD__
....................    typedef signed int64 intmax_t;
....................    typedef unsigned int64 uintmax_t;
....................    
....................    #define INTMAXN_MAX  (9223372036854775807)
....................    #define INTMAXN_MIN  (-9223372036854775808)
....................    #define UINTMAXN_MAX (18446744073709551615)
....................    
....................    #define INTMAX_C(value) ((signed int64)val)
....................    #define UINTMAX_C(value) ((unsigned int64)val)
.................... #else
....................    typedef signed int32 intmax_t;
....................    typedef unsigned int32 uintmax_t;
....................    
....................    #define INTMAXN_MAX  (2147483647)
....................    #define INTMAXN_MIN  (-2147483648)
....................    #define UINTMAXN_MAX (4294967295)
....................    
....................    #define INTMAX_C(value) ((signed int32)val)
....................    #define UINTMAX_C(value) ((unsigned int32)val)
.................... #endif
.................... 
.................... 
.................... #endif
.................... 
.................... 
.................... #include "../../system/son_tmp_config.h"
.................... #ifndef son_tmp_CONFIG_H
.................... #define son_tmp_CONFIG_H
.................... 
.................... #define SELF_DEVICE_ID CIGS_PIC
.................... 
.................... #include <18F67J94.h>
.................... #opt 0 // 0 = no optimization
.................... 
.................... #use delay(crystal=16MHz)
.................... #fuses HS, NOWDT, NOBROWNOUT, NOPROTECT
.................... 
.................... #define PIC18
.................... 
.................... #ifdef PIC18
....................     // ==========================================
....................     // 1. гғҸгғјгғүгӮҰгӮ§гӮўж§ӢжҲҗгҒЁгғ”гғігӮўгӮөгӮӨгғі
....................     // ==========================================
.................... 
....................     #define PIN_LDO_EN          PIN_E1
....................     #define PIN_VREF_EN         PIN_E0
....................     #define PIN_LED1            PIN_A5
....................     #define PIN_LED2            PIN_A1
.................... 
....................     #define PIN_SW_DIO1         PIN_C1
....................     #define PIN_SW_DIO0         PIN_C2
.................... 
....................     // SPI Chip Select (BOSSгғҳгғғгғҖеҗҚз§°гҒ«йҒ©еҗҲ)
....................     #define MIS_FM_CS           PIN_B1
....................     #define SMF_CS              PIN_D4
....................     #define PIN_CS_ADC          PIN_B3
.................... 
.................... // ------------------------------------------
....................     // UART йҖҡдҝЎиЁӯе®ҡ (еј·еҲ¶гӮҪгғ•гғҲгӮҰгӮ§гӮўеҲ¶еҫЎ)
....................     // ------------------------------------------
....................     #use rs232(baud=9600, parity=N, xmit=PIN_G0, bits=8, stream=PC, FORCE_SW, ERRORS)
....................     #use rs232(baud=9600, parity=N, xmit=PIN_D1, rcv=PIN_D0, bits=8, stream=BOSS, FORCE_SW, ERRORS)
.................... 
....................     // ------------------------------------------
....................     // SPI йҖҡдҝЎиЁӯе®ҡ (еј·еҲ¶гӮҪгғ•гғҲгӮҰгӮ§гӮўеҲ¶еҫЎ)
....................     // ------------------------------------------
....................     #use spi(MASTER, BAUD=1000000, MODE=0, BITS=8, DI=PIN_B5, DO=PIN_B4, CLK=PIN_B2, stream=MIS_FM_STREAM, FORCE_SW)
....................     #use spi(MASTER, BAUD=1000000, MODE=0, BITS=8, DI=PIN_D6, DO=PIN_D7, CLK=PIN_D5, stream=SMF_STREAM, FORCE_SW)
.................... 
.................... #endif
.................... 
.................... // ==========================================
.................... // 2. гӮ·гӮ№гғҶгғ гӮ·гғјгӮұгғігӮ№ гӮігғһгғігғүе®ҡзҫ©
.................... // ==========================================
.................... #define CMD_MISSION_START       0x10
.................... #define RES_MISSION_DONE        0x11
.................... #define CMD_SMF_PREPARE         0x20
.................... #define REQ_SMF_COPY            0x21
.................... #define CMD_SMF_PERMIT          0x22
.................... #define REQ_POWER_OFF           0x30
.................... 
.................... // ==========================================
.................... // 3. гғҮгғјгӮҝгғ•гӮ©гғјгғһгғғгғҲгғ»гғҗгғғгғ•гӮЎе®ҡзҫ©
.................... // ==========================================
.................... #define PACKET_SIZE             64
.................... #define FLASH_PAGE_SIZE         256
.................... #define PACKETS_PER_PAGE        4
.................... #define SMF_TRANSFER_PACKETS    15
.................... 
.................... // гғҳгғғгғҖгғјж§ӢйҖ дҪ“ (8Byte)
.................... typedef struct
.................... {
....................     unsigned int32 timestamp;      // 4 Byte
....................     unsigned int8  mode : 3;       // 3 bit
....................     unsigned int8  channel : 1;    // 1 bit
....................     unsigned int8  samplingRate : 4; // 4 bit
....................     unsigned int16 dataCount;      // 12bitгҒ§гҒҜгҒӘгҒҸ16bit(2Byte)гҒ§зўәдҝқгҒ—гӮЁгғ©гғјгӮ’еӣһйҒҝ
....................     unsigned int8  zeroFill;       // 1 Byte (еҗҲиЁҲ8ByteгҒ«гҒҷгӮӢгҒҹгӮҒ)
.................... } PacketHeader;
.................... 
.................... typedef struct
.................... {
....................     PacketHeader header;           // 8 Byte
....................     unsigned int8 packetNum;       // 1 Byte
....................     unsigned int16 adcData[27];    // 54 Byte
....................     unsigned int8 crc8;            // 1 Byte
.................... } FirstPacket;
.................... 
.................... typedef struct
.................... {
....................     unsigned int8 packetNum;       // 1 Byte
....................     unsigned int16 adcData[31];    // 62 Byte
....................     unsigned int8 crc8;            // 1 Byte
.................... } SubsequentPacket;
.................... 
.................... typedef union
.................... {
....................     unsigned int8 raw[PACKET_SIZE];
....................     FirstPacket first;
....................     SubsequentPacket sub;
.................... } PacketBuffer;
.................... 
.................... #endif // son_tmp_CONFIG_H
.................... 
.................... 
.................... // ============================================================================
.................... // еӨ–йғЁе…¬й–Ӣй–ўж•°гғ—гғӯгғҲгӮҝгӮӨгғ—
.................... // ============================================================================
.................... 
.................... // SMFи»ўйҖҒжә–еӮҷ (CMD_SMF_PREPARE еҸ—дҝЎжҷӮгҒ«е®ҹиЎҢ)
.................... void prepare_smf_transfer(void);
.................... 
.................... // SMFгғҮгғјгӮҝи»ўйҖҒе®ҹиЎҢ (REQ_SMF_COPY еҸ—дҝЎжҷӮгҒ«е®ҹиЎҢ)
.................... void execute_smf_transfer(void);
.................... 
.................... // SMFи»ўйҖҒе®ҢдәҶиЁұеҸҜ (CMD_SMF_PERMIT еҸ—дҝЎжҷӮгҒ«е®ҹиЎҢ)
.................... void permit_smf_transfer(void);
.................... 
.................... #endif // son_tmp_MODE_FLASH_H
.................... 
.................... 
.................... 
.................... //==============================================================================
.................... // .cгғ•гӮЎгӮӨгғ«зөұеҗҲпјҲCCS CеҚҳдёҖгӮігғігғ‘гӮӨгғ«еҚҳдҪҚпјү
.................... //==============================================================================
.................... 
.................... // гғҸгғјгғүгӮҰгӮ§гӮўеұӨе®ҹиЈ…гғ•гӮЎгӮӨгғ«
.................... #include "../hardware/mcu/src/timer.c"
.................... // дёҖгҒӨдёҠгҒ®йҡҺеұӨгҒ«гҒӮгӮӢ timer.h гӮ’гӮӨгғігӮҜгғ«гғјгғү
.................... #include "../timer.h"
.................... #ifndef TIMER_H
.................... #define TIMER_H
.................... 
.................... #include <stdint.h>
.................... 
.................... // __________ values _________
.................... 
.................... // гғ‘гӮұгғғгғҲгғҳгғғгғҖгғјгҒ® timestamp гҒ§дҪҝз”ЁгҒҷгӮӢгҒҹгӮҒгҒ®з§’гӮ«гӮҰгғігӮҝ
.................... extern volatile uint32_t sec;
.................... 
.................... 
.................... // __________ functions _________
.................... uint32_t get_current_sec();
.................... void set_current_sec(uint32_t new_sec);
.................... void setup_timer();
.................... 
.................... #INT_TIMER1
.................... void TIMER1_isr();
.................... 
.................... #endif
.................... 
.................... 
.................... volatile uint32_t sec = 0;
.................... volatile uint8_t timer_tick_100ms = 0;
.................... 
.................... #INT_TIMER1
.................... void TIMER1_isr()
.................... {
....................     set_timer1(15536);
*
000BE:  MOVLW  3C
000C0:  MOVWF  FCF
000C2:  MOVLW  B0
000C4:  MOVWF  FCE
000C6:  NOP   
....................     timer_tick_100ms++;
000C8:  MOVLB  1
000CA:  INCF   x40,F
.................... 
....................     if (timer_tick_100ms >= 10)
000CC:  MOVF   x40,W
000CE:  SUBLW  09
000D0:  BTFSS  FD8.0
000D2:  BRA    00DA
000D4:  MOVLB  0
000D6:  GOTO   00F2
000DA:  MOVLB  0
....................     {
....................         timer_tick_100ms = 0;
000DC:  MOVLB  1
000DE:  CLRF   x40
....................         sec++;
000E0:  MOVLW  01
000E2:  ADDWF  1B,F
000E4:  BTFSC  FD8.0
000E6:  INCF   1C,F
000E8:  BTFSC  FD8.2
000EA:  INCF   1D,F
000EC:  BTFSC  FD8.2
000EE:  INCF   1E,F
000F0:  MOVLB  0
....................     }
000F2:  BCF    F9E.0
000F4:  GOTO   0068
.................... }
.................... 
.................... void setup_timer()
.................... {
....................     fprintf(PC, "Timer Initialize (16MHz Main Clock Base)\r\n");
*
00B44:  MOVLW  F8
00B46:  MOVWF  FF6
00B48:  MOVLW  00
00B4A:  MOVWF  FF7
00B4C:  MOVLW  00
00B4E:  MOVWF  FF8
00B50:  CALL   0A16
....................     clear_interrupt(INT_TIMER1);
00B54:  BCF    F9E.0
.................... 
....................     setup_timer_1(T1_INTERNAL | T1_DIV_BY_8);
00B56:  MOVLW  37
00B58:  MOVWF  FCD
00B5A:  CLRF   FAA
....................     set_timer1(15536);
00B5C:  MOVLW  3C
00B5E:  MOVWF  FCF
00B60:  MOVLW  B0
00B62:  MOVWF  FCE
00B64:  NOP   
.................... 
....................     timer_tick_100ms = 0;
00B66:  MOVLB  1
00B68:  CLRF   x40
.................... 
....................     enable_interrupts(INT_TIMER1);
00B6A:  BSF    F9D.0
....................     enable_interrupts(GLOBAL);
00B6C:  MOVLW  C0
00B6E:  IORWF  FF2,F
.................... 
....................     fprintf(PC, "\tComplete\r\n");
00B70:  MOVLW  24
00B72:  MOVWF  FF6
00B74:  MOVLW  01
00B76:  MOVWF  FF7
00B78:  MOVLW  00
00B7A:  MOVWF  FF8
00B7C:  MOVLB  0
00B7E:  CALL   0A16
00B82:  GOTO   3B96 (RETURN)
.................... }
.................... 
.................... void set_current_sec(uint32_t new_sec)
.................... {
....................     sec = new_sec;
.................... }
.................... 
.................... uint32_t get_current_sec()
.................... {
....................     return sec;
*
01382:  MOVFF  1B,00
01386:  MOVFF  1C,01
0138A:  MOVFF  1D,02
0138E:  MOVFF  1E,03
01392:  RETURN 0
.................... }
.................... 
.................... #include "../hardware/mcu/src/uart.c"
.................... #INT_RDA3
.................... 
.................... volatile unsigned int8 boss_receive_buffer[RECEIVE_BUFFER_MAX] = {0x00};
.................... volatile int8 boss_receive_buffer_size = 0;
.................... 
.................... static void RDA_isr(void)
.................... {
....................    if (!(status == EXECUTING_MISSION || status == COPYING) || is_use_smf_req_in_mission)
....................       if (boss_receive_buffer_size < RECEIVE_BUFFER_MAX)
....................          boss_receive_buffer[boss_receive_buffer_size++ % RECEIVE_BUFFER_MAX] = fgetc(BOSS);
.................... 
....................    // fprintf(PC, "RDA Interrupt: %d bytes received\r\n", boss_receive_buffer_size);
.................... }
.................... 
.................... void setup_uart_to_boss()
.................... {
....................    fprintf(PC, "UART Initialize\r\n");
*
00B1A:  MOVLW  30
00B1C:  MOVWF  FF6
00B1E:  MOVLW  01
00B20:  MOVWF  FF7
00B22:  MOVLW  00
00B24:  MOVWF  FF8
00B26:  CALL   0A16
....................    enable_interrupts(INT_RDA3);
00B2A:  BSF    F61.5
....................    enable_interrupts(global);
00B2C:  MOVLW  C0
00B2E:  IORWF  FF2,F
....................    fprintf(PC, "\tComplete\r\n");
00B30:  MOVLW  42
00B32:  MOVWF  FF6
00B34:  MOVLW  01
00B36:  MOVWF  FF7
00B38:  MOVLW  00
00B3A:  MOVWF  FF8
00B3C:  CALL   0A16
00B40:  GOTO   3B92 (RETURN)
.................... }
.................... 
.................... void clear_receive_signal(unsigned int8 receive_signal[], int8 *receive_signal_size)
.................... {
....................    memset(receive_signal, 0x00, *receive_signal_size);
*
02630:  MOVFF  15F,03
02634:  MOVLB  1
02636:  MOVF   x5E,W
02638:  MOVWF  FE9
0263A:  MOVFF  03,FEA
0263E:  MOVFF  FEF,160
02642:  MOVFF  15D,FEA
02646:  MOVFF  15C,FE9
0264A:  CLRF   00
0264C:  CLRF   02
0264E:  MOVFF  160,01
02652:  MOVLB  0
02654:  CALL   0F96
....................    *receive_signal_size = 0;
02658:  MOVFF  15F,03
0265C:  MOVLB  1
0265E:  MOVF   x5E,W
02660:  MOVWF  FE9
02662:  MOVFF  03,FEA
02666:  CLRF   FEF
02668:  MOVLB  0
0266A:  GOTO   3C2A (RETURN)
.................... }
.................... // End of file
.................... 
.................... 
.................... // гғ©гӮӨгғ–гғ©гғӘе®ҹиЈ…гғ•гӮЎгӮӨгғ«
.................... #include "../../lib/device/mt25q.c"
.................... #include "mt25q.h"  // гғҳгғғгғҖгғјгғ•гӮЎгӮӨгғ«гҒӢгӮүиҮӘеӢ•зҡ„гҒ«гӮӨгғігӮҜгғ«гғјгғүгҒ•гӮҢгӮӢгҒҹгӮҒдёҚиҰҒ
.................... #ifndef MT25Q_H
.................... #define MT25Q_H
.................... 
.................... // =========
.................... //#define MT25Q_DEBUG
.................... // =========
.................... 
.................... 
.................... #define FLASH_STREAM0 MIS_FM_STREAM     // <- Align the names to `config.h` Stream name
.................... #define FLASH_STREAM1 SMF_STREAM
.................... #define FLASH_STREAM2 SMF_STREAM // dont use
.................... #define FLASH_STREAM3 SMF_STREAM // dont use
.................... 
.................... typedef enum spi_stream{
....................     SPI_0,
....................     SPI_1,
....................     SPI_2,
....................     SPI_3,
.................... }SpiStreamId;
.................... 
.................... #define MT25QL128ABA 0x00     //Mission Flash
.................... #define MT25QL01GBBB 0x01     //SMF,CF
.................... typedef struct select_stream_to_flash{
....................     SpiStreamId spi_stream_id;
....................     unsigned int8 flash_model;
....................     int16 cs_pin;
.................... }Flash;
.................... 
.................... 
.................... Flash mis_fm = {SPI_0, MT25QL128ABA, MIS_FM_CS};
.................... Flash smf = {SPI_1, MT25QL01GBBB, SMF_CS};
.................... 
.................... 
.................... 
.................... // ===================== Function List =====================
.................... // Public Functions
.................... 
.................... int1 is_connect(Flash flash_stream);
.................... 
.................... void write_data_bytes(Flash flash_stream, unsigned int32 write_start_address, int8 *write_data, unsigned int16 write_amount);      
.................... 
.................... void read_data_bytes(Flash flash_stream, unsigned int32 read_start_address, int8 *read_data, unsigned int32 read_amount);  
.................... 
.................... void sector_erase(Flash flash_stream, unsigned int32 sector_address);
.................... 
.................... void subsector_32kByte_erase(Flash flash_stream, unsigned int32 subsector_address);  
....................                                
.................... void subsector_4kByte_erase(Flash flash_stream, unsigned int32 subsector_address);      
.................... 
.................... //Private Functions
....................  
.................... void flash_setting(Flash flash_stream);
....................  
.................... int8 status_register(Flash flash_stream);
....................  
.................... int8 read_id(Flash flash_stream);
....................  
.................... int8 read_data_byte(Flash flash_stream, unsigned int32 read_address);                                               
....................  
.................... void write_data_byte(Flash flash_stream, unsigned int32 write_address,int8 write_data);                             
....................         //
.................... 
.................... 
.................... // ===================== Flash Commands =====================
.................... #define CMD_READ_ID                     0x9F
.................... #define CMD_READ_STATUS_REGISTER        0x05
.................... #define CMD_READ                        0x03//for MT25QL128ABA
.................... #define CMD_4BYTE_READ                  0x13//for MT25QL01GBBB
.................... #define CMD_WRITE_ENABLE                0x06
.................... #define CMD_PAGE_PROGRAM                0x02//for MT25QL128ABA
.................... #define CMD_4BYTE_PAGE_PROGRAM          0x12//for MT25QL01GBBB
.................... #define CMD_SUBSECTOR_4KB_ERASE         0x20//for MT25QL128ABA
.................... #define CMD_4BYTE_SUBSECTOR_4KB_ERASE   0x21//for MT25QL01GBBB
.................... #define CMD_SUBSECTOR_32KB_ERASE        0x52//for MT25QL128ABA
.................... #define CMD_4BYTE_SUBSECTOR_32KB_ERASE  0x5C//for MT25QL01GBBB
.................... #define CMD_SECTOR_ERASE                0xD8//for MT25QL128ABA
.................... #define CMD_4BYTE_SECTOR_ERASE          0xDC//for MT25QL01GBBB
.................... 
.................... // ====================== Value List =====================
.................... #define MANUFACTURER_ID_MICRON 0x20 // Manufacturer ID for Micron flash
.................... #define READ_ID_DATASIZE 20 // 20 bytes for read ID data
.................... 
.................... 
.................... // ====================== Data Structures =====================
.................... typedef union
.................... {
....................     unsigned int8 bytes[READ_ID_DATASIZE]; // 20 bytes for read ID
....................     struct {
....................         unsigned int8 manufacturer_id; // 1 byte
....................         unsigned int8 memory_type;     // 1 byte
....................         unsigned int8 capacity;        // 1 byte
....................         unsigned int8 reserved;       // 1 byte
....................     } fields;
.................... }READ_ID_DATA;
.................... 
.................... 
.................... #endif
.................... 
.................... 
.................... 
.................... 
.................... 
.................... 
.................... //send multi bytes
.................... void spi_xfer_select_stream(Flash flash_stream, int8 *write_data, unsigned int16 write_amount){
....................    switch(flash_stream.spi_stream_id){
*
01404:  MOVLB  2
01406:  MOVF   x1C,W
01408:  XORLW  00
0140A:  MOVLB  0
0140C:  BTFSC  FD8.2
0140E:  GOTO   141E
01412:  XORLW  01
01414:  BTFSC  FD8.2
01416:  GOTO   1486
0141A:  GOTO   14EE
....................       case SPI_0:
....................          for(unsigned int16 spi_xfer_num = 0;spi_xfer_num < write_amount;spi_xfer_num++)
0141E:  MOVLB  2
01420:  CLRF   x25
01422:  CLRF   x24
01424:  MOVLB  0
01426:  MOVLB  2
01428:  MOVF   x25,W
0142A:  SUBWF  x23,W
0142C:  BTFSC  FD8.0
0142E:  BRA    1436
01430:  MOVLB  0
01432:  GOTO   1482
01436:  MOVLB  0
01438:  BTFSS  FD8.2
0143A:  GOTO   1450
0143E:  MOVLB  2
01440:  MOVF   x22,W
01442:  SUBWF  x24,W
01444:  BTFSS  FD8.0
01446:  BRA    144E
01448:  MOVLB  0
0144A:  GOTO   1482
0144E:  MOVLB  0
....................             spi_xfer(FLASH_STREAM0,write_data[spi_xfer_num]);
01450:  MOVLB  2
01452:  MOVF   x20,W
01454:  ADDWF  x24,W
01456:  MOVWF  FE9
01458:  MOVF   x21,W
0145A:  ADDWFC x25,W
0145C:  MOVWF  FEA
0145E:  MOVFF  FEF,228
01462:  MOVFF  228,23E
01466:  MOVLW  08
01468:  MOVWF  x3F
0146A:  MOVLW  01
0146C:  MOVWF  x40
0146E:  MOVLB  0
01470:  CALL   0BDA
01474:  MOVLB  2
01476:  INCF   x24,F
01478:  BTFSC  FD8.2
0147A:  INCF   x25,F
0147C:  MOVLB  0
0147E:  GOTO   1426
....................          break;
01482:  GOTO   14F2
....................          
....................       case SPI_1:
....................          for(unsigned int16 spi_xfer_num = 0;spi_xfer_num < write_amount;spi_xfer_num++)
01486:  MOVLB  2
01488:  CLRF   x27
0148A:  CLRF   x26
0148C:  MOVLB  0
0148E:  MOVLB  2
01490:  MOVF   x27,W
01492:  SUBWF  x23,W
01494:  BTFSC  FD8.0
01496:  BRA    149E
01498:  MOVLB  0
0149A:  GOTO   14EA
0149E:  MOVLB  0
014A0:  BTFSS  FD8.2
014A2:  GOTO   14B8
014A6:  MOVLB  2
014A8:  MOVF   x22,W
014AA:  SUBWF  x26,W
014AC:  BTFSS  FD8.0
014AE:  BRA    14B6
014B0:  MOVLB  0
014B2:  GOTO   14EA
014B6:  MOVLB  0
....................             spi_xfer(FLASH_STREAM1,write_data[spi_xfer_num]);
014B8:  MOVLB  2
014BA:  MOVF   x20,W
014BC:  ADDWF  x26,W
014BE:  MOVWF  FE9
014C0:  MOVF   x21,W
014C2:  ADDWFC x27,W
014C4:  MOVWF  FEA
014C6:  MOVFF  FEF,228
014CA:  MOVFF  228,23E
014CE:  MOVLW  08
014D0:  MOVWF  x3F
014D2:  MOVLW  01
014D4:  MOVWF  x40
014D6:  MOVLB  0
014D8:  CALL   0C3A
014DC:  MOVLB  2
014DE:  INCF   x26,F
014E0:  BTFSC  FD8.2
014E2:  INCF   x27,F
014E4:  MOVLB  0
014E6:  GOTO   148E
....................          break;
014EA:  GOTO   14F2
....................          
....................       default:
....................          break;
014EE:  GOTO   14F2
....................    }
....................    return;
014F2:  RETURN 0
.................... }
.................... 
.................... //send multi bytes then receive multi bytes 
.................... void spi_xfer_and_read_select_stream(Flash flash_stream, int8 *write_data, unsigned int16 write_amount, int8 *read_data, unsigned int32 read_amount){
....................    switch(flash_stream.spi_stream_id){
*
00C9A:  MOVLB  2
00C9C:  MOVF   x22,W
00C9E:  XORLW  00
00CA0:  MOVLB  0
00CA2:  BTFSC  FD8.2
00CA4:  GOTO   0CB4
00CA8:  XORLW  01
00CAA:  BTFSC  FD8.2
00CAC:  GOTO   0DBE
00CB0:  GOTO   0EC8
....................       case SPI_0:
....................       for(unsigned int16 spi_xfer_num = 0;spi_xfer_num < write_amount;spi_xfer_num++)
00CB4:  MOVLB  2
00CB6:  CLRF   x31
00CB8:  CLRF   x30
00CBA:  MOVLB  0
00CBC:  MOVLB  2
00CBE:  MOVF   x31,W
00CC0:  SUBWF  x29,W
00CC2:  BTFSC  FD8.0
00CC4:  BRA    0CCC
00CC6:  MOVLB  0
00CC8:  GOTO   0D18
00CCC:  MOVLB  0
00CCE:  BTFSS  FD8.2
00CD0:  GOTO   0CE6
00CD4:  MOVLB  2
00CD6:  MOVF   x28,W
00CD8:  SUBWF  x30,W
00CDA:  BTFSS  FD8.0
00CDC:  BRA    0CE4
00CDE:  MOVLB  0
00CE0:  GOTO   0D18
00CE4:  MOVLB  0
....................          spi_xfer(FLASH_STREAM0, write_data[spi_xfer_num]);
00CE6:  MOVLB  2
00CE8:  MOVF   x26,W
00CEA:  ADDWF  x30,W
00CEC:  MOVWF  FE9
00CEE:  MOVF   x27,W
00CF0:  ADDWFC x31,W
00CF2:  MOVWF  FEA
00CF4:  MOVFF  FEF,23C
00CF8:  MOVFF  23C,23E
00CFC:  MOVLW  08
00CFE:  MOVWF  x3F
00D00:  MOVLW  01
00D02:  MOVWF  x40
00D04:  MOVLB  0
00D06:  CALL   0BDA
00D0A:  MOVLB  2
00D0C:  INCF   x30,F
00D0E:  BTFSC  FD8.2
00D10:  INCF   x31,F
00D12:  MOVLB  0
00D14:  GOTO   0CBC
....................       for(unsigned int32 spi_rcv_num = 0;spi_rcv_num < read_amount;spi_rcv_num++)
00D18:  MOVLB  2
00D1A:  CLRF   x35
00D1C:  CLRF   x34
00D1E:  CLRF   x33
00D20:  CLRF   x32
00D22:  MOVLB  0
00D24:  MOVLB  2
00D26:  MOVF   x35,W
00D28:  SUBWF  x2F,W
00D2A:  BTFSC  FD8.0
00D2C:  BRA    0D34
00D2E:  MOVLB  0
00D30:  GOTO   0DBA
00D34:  MOVLB  0
00D36:  BTFSS  FD8.2
00D38:  GOTO   0D7E
00D3C:  MOVLB  2
00D3E:  MOVF   x34,W
00D40:  SUBWF  x2E,W
00D42:  BTFSC  FD8.0
00D44:  BRA    0D4C
00D46:  MOVLB  0
00D48:  GOTO   0DBA
00D4C:  MOVLB  0
00D4E:  BTFSS  FD8.2
00D50:  GOTO   0D7E
00D54:  MOVLB  2
00D56:  MOVF   x33,W
00D58:  SUBWF  x2D,W
00D5A:  BTFSC  FD8.0
00D5C:  BRA    0D64
00D5E:  MOVLB  0
00D60:  GOTO   0DBA
00D64:  MOVLB  0
00D66:  BTFSS  FD8.2
00D68:  GOTO   0D7E
00D6C:  MOVLB  2
00D6E:  MOVF   x2C,W
00D70:  SUBWF  x32,W
00D72:  BTFSS  FD8.0
00D74:  BRA    0D7C
00D76:  MOVLB  0
00D78:  GOTO   0DBA
00D7C:  MOVLB  0
....................          read_data[spi_rcv_num] = spi_xfer(FLASH_STREAM0);
00D7E:  MOVLB  2
00D80:  MOVF   x2A,W
00D82:  ADDWF  x32,W
00D84:  MOVWF  FE9
00D86:  MOVF   x2B,W
00D88:  ADDWFC x33,W
00D8A:  MOVWF  FEA
00D8C:  MOVLW  01
00D8E:  MOVWF  x3E
00D90:  MOVLW  08
00D92:  MOVWF  x3F
00D94:  MOVLW  01
00D96:  MOVWF  x40
00D98:  MOVLB  0
00D9A:  CALL   0BDA
00D9E:  MOVFF  01,FEF
00DA2:  MOVLW  01
00DA4:  MOVLB  2
00DA6:  ADDWF  x32,F
00DA8:  BTFSC  FD8.0
00DAA:  INCF   x33,F
00DAC:  BTFSC  FD8.2
00DAE:  INCF   x34,F
00DB0:  BTFSC  FD8.2
00DB2:  INCF   x35,F
00DB4:  MOVLB  0
00DB6:  GOTO   0D24
....................          break;
00DBA:  GOTO   0ECC
....................          
....................       case SPI_1:
....................          for(unsigned int16 spi_xfer_num = 0;spi_xfer_num < write_amount;spi_xfer_num++)
00DBE:  MOVLB  2
00DC0:  CLRF   x37
00DC2:  CLRF   x36
00DC4:  MOVLB  0
00DC6:  MOVLB  2
00DC8:  MOVF   x37,W
00DCA:  SUBWF  x29,W
00DCC:  BTFSC  FD8.0
00DCE:  BRA    0DD6
00DD0:  MOVLB  0
00DD2:  GOTO   0E22
00DD6:  MOVLB  0
00DD8:  BTFSS  FD8.2
00DDA:  GOTO   0DF0
00DDE:  MOVLB  2
00DE0:  MOVF   x28,W
00DE2:  SUBWF  x36,W
00DE4:  BTFSS  FD8.0
00DE6:  BRA    0DEE
00DE8:  MOVLB  0
00DEA:  GOTO   0E22
00DEE:  MOVLB  0
....................             spi_xfer(FLASH_STREAM1, write_data[spi_xfer_num]);
00DF0:  MOVLB  2
00DF2:  MOVF   x26,W
00DF4:  ADDWF  x36,W
00DF6:  MOVWF  FE9
00DF8:  MOVF   x27,W
00DFA:  ADDWFC x37,W
00DFC:  MOVWF  FEA
00DFE:  MOVFF  FEF,23C
00E02:  MOVFF  23C,23E
00E06:  MOVLW  08
00E08:  MOVWF  x3F
00E0A:  MOVLW  01
00E0C:  MOVWF  x40
00E0E:  MOVLB  0
00E10:  CALL   0C3A
00E14:  MOVLB  2
00E16:  INCF   x36,F
00E18:  BTFSC  FD8.2
00E1A:  INCF   x37,F
00E1C:  MOVLB  0
00E1E:  GOTO   0DC6
....................          for(unsigned int32 spi_rcv_num = 0;spi_rcv_num < read_amount;spi_rcv_num++)
00E22:  MOVLB  2
00E24:  CLRF   x3B
00E26:  CLRF   x3A
00E28:  CLRF   x39
00E2A:  CLRF   x38
00E2C:  MOVLB  0
00E2E:  MOVLB  2
00E30:  MOVF   x3B,W
00E32:  SUBWF  x2F,W
00E34:  BTFSC  FD8.0
00E36:  BRA    0E3E
00E38:  MOVLB  0
00E3A:  GOTO   0EC4
00E3E:  MOVLB  0
00E40:  BTFSS  FD8.2
00E42:  GOTO   0E88
00E46:  MOVLB  2
00E48:  MOVF   x3A,W
00E4A:  SUBWF  x2E,W
00E4C:  BTFSC  FD8.0
00E4E:  BRA    0E56
00E50:  MOVLB  0
00E52:  GOTO   0EC4
00E56:  MOVLB  0
00E58:  BTFSS  FD8.2
00E5A:  GOTO   0E88
00E5E:  MOVLB  2
00E60:  MOVF   x39,W
00E62:  SUBWF  x2D,W
00E64:  BTFSC  FD8.0
00E66:  BRA    0E6E
00E68:  MOVLB  0
00E6A:  GOTO   0EC4
00E6E:  MOVLB  0
00E70:  BTFSS  FD8.2
00E72:  GOTO   0E88
00E76:  MOVLB  2
00E78:  MOVF   x2C,W
00E7A:  SUBWF  x38,W
00E7C:  BTFSS  FD8.0
00E7E:  BRA    0E86
00E80:  MOVLB  0
00E82:  GOTO   0EC4
00E86:  MOVLB  0
....................             read_data[spi_rcv_num] = spi_xfer(FLASH_STREAM1);
00E88:  MOVLB  2
00E8A:  MOVF   x2A,W
00E8C:  ADDWF  x38,W
00E8E:  MOVWF  FE9
00E90:  MOVF   x2B,W
00E92:  ADDWFC x39,W
00E94:  MOVWF  FEA
00E96:  MOVLW  02
00E98:  MOVWF  x3E
00E9A:  MOVLW  08
00E9C:  MOVWF  x3F
00E9E:  MOVLW  01
00EA0:  MOVWF  x40
00EA2:  MOVLB  0
00EA4:  CALL   0C3A
00EA8:  MOVFF  01,FEF
00EAC:  MOVLW  01
00EAE:  MOVLB  2
00EB0:  ADDWF  x38,F
00EB2:  BTFSC  FD8.0
00EB4:  INCF   x39,F
00EB6:  BTFSC  FD8.2
00EB8:  INCF   x3A,F
00EBA:  BTFSC  FD8.2
00EBC:  INCF   x3B,F
00EBE:  MOVLB  0
00EC0:  GOTO   0E2E
....................          break;
00EC4:  GOTO   0ECC
....................    
....................          
....................       default:
....................          break;
00EC8:  GOTO   0ECC
....................    }
....................    return;
00ECC:  RETURN 0
.................... }
.................... 
.................... //send multi bytes(ex:cmd) then send other multi bytes(for write multi bytes) 
.................... void spi_xfer_two_datas_select_stream(Flash flash_stream, int8 *cmd_data, unsigned int8 cmd_amount, int8 *write_data, unsigned int16 write_amount){
....................    switch(flash_stream.spi_stream_id){
*
014F4:  MOVLB  2
014F6:  MOVF   x1C,W
014F8:  XORLW  00
014FA:  MOVLB  0
014FC:  BTFSC  FD8.2
014FE:  GOTO   150E
01502:  XORLW  01
01504:  BTFSC  FD8.2
01506:  GOTO   15BC
0150A:  GOTO   166A
....................       case SPI_0:
....................       for(unsigned int8 spi_xfer_num = 0;spi_xfer_num < cmd_amount;spi_xfer_num++)
0150E:  MOVLB  2
01510:  CLRF   x27
01512:  MOVLB  0
01514:  MOVLB  2
01516:  MOVF   x22,W
01518:  SUBWF  x27,W
0151A:  BTFSS  FD8.0
0151C:  BRA    1524
0151E:  MOVLB  0
01520:  GOTO   1554
01524:  MOVLB  0
....................          spi_xfer(FLASH_STREAM0, cmd_data[spi_xfer_num]);
01526:  MOVLB  2
01528:  MOVF   x27,W
0152A:  ADDWF  x20,W
0152C:  MOVWF  FE9
0152E:  MOVLW  00
01530:  ADDWFC x21,W
01532:  MOVWF  FEA
01534:  MOVFF  FEF,22D
01538:  MOVFF  22D,23E
0153C:  MOVLW  08
0153E:  MOVWF  x3F
01540:  MOVLW  01
01542:  MOVWF  x40
01544:  MOVLB  0
01546:  CALL   0BDA
0154A:  MOVLB  2
0154C:  INCF   x27,F
0154E:  MOVLB  0
01550:  GOTO   1514
....................       for(unsigned int16 spi_xfer_num = 0;spi_xfer_num < write_amount;spi_xfer_num++)
01554:  MOVLB  2
01556:  CLRF   x29
01558:  CLRF   x28
0155A:  MOVLB  0
0155C:  MOVLB  2
0155E:  MOVF   x29,W
01560:  SUBWF  x26,W
01562:  BTFSC  FD8.0
01564:  BRA    156C
01566:  MOVLB  0
01568:  GOTO   15B8
0156C:  MOVLB  0
0156E:  BTFSS  FD8.2
01570:  GOTO   1586
01574:  MOVLB  2
01576:  MOVF   x25,W
01578:  SUBWF  x28,W
0157A:  BTFSS  FD8.0
0157C:  BRA    1584
0157E:  MOVLB  0
01580:  GOTO   15B8
01584:  MOVLB  0
....................          spi_xfer(FLASH_STREAM0, write_data[spi_xfer_num]);
01586:  MOVLB  2
01588:  MOVF   x23,W
0158A:  ADDWF  x28,W
0158C:  MOVWF  FE9
0158E:  MOVF   x24,W
01590:  ADDWFC x29,W
01592:  MOVWF  FEA
01594:  MOVFF  FEF,22D
01598:  MOVFF  22D,23E
0159C:  MOVLW  08
0159E:  MOVWF  x3F
015A0:  MOVLW  01
015A2:  MOVWF  x40
015A4:  MOVLB  0
015A6:  CALL   0BDA
015AA:  MOVLB  2
015AC:  INCF   x28,F
015AE:  BTFSC  FD8.2
015B0:  INCF   x29,F
015B2:  MOVLB  0
015B4:  GOTO   155C
....................          break;
015B8:  GOTO   166E
....................          
....................       case SPI_1:
....................          for(unsigned int8 spi_xfer_num = 0;spi_xfer_num < cmd_amount;spi_xfer_num++)
015BC:  MOVLB  2
015BE:  CLRF   x2A
015C0:  MOVLB  0
015C2:  MOVLB  2
015C4:  MOVF   x22,W
015C6:  SUBWF  x2A,W
015C8:  BTFSS  FD8.0
015CA:  BRA    15D2
015CC:  MOVLB  0
015CE:  GOTO   1602
015D2:  MOVLB  0
....................             spi_xfer(FLASH_STREAM1, cmd_data[spi_xfer_num]);
015D4:  MOVLB  2
015D6:  MOVF   x2A,W
015D8:  ADDWF  x20,W
015DA:  MOVWF  FE9
015DC:  MOVLW  00
015DE:  ADDWFC x21,W
015E0:  MOVWF  FEA
015E2:  MOVFF  FEF,22D
015E6:  MOVFF  22D,23E
015EA:  MOVLW  08
015EC:  MOVWF  x3F
015EE:  MOVLW  01
015F0:  MOVWF  x40
015F2:  MOVLB  0
015F4:  CALL   0C3A
015F8:  MOVLB  2
015FA:  INCF   x2A,F
015FC:  MOVLB  0
015FE:  GOTO   15C2
....................          for(unsigned int16 spi_xfer_num = 0;spi_xfer_num < write_amount;spi_xfer_num++)
01602:  MOVLB  2
01604:  CLRF   x2C
01606:  CLRF   x2B
01608:  MOVLB  0
0160A:  MOVLB  2
0160C:  MOVF   x2C,W
0160E:  SUBWF  x26,W
01610:  BTFSC  FD8.0
01612:  BRA    161A
01614:  MOVLB  0
01616:  GOTO   1666
0161A:  MOVLB  0
0161C:  BTFSS  FD8.2
0161E:  GOTO   1634
01622:  MOVLB  2
01624:  MOVF   x25,W
01626:  SUBWF  x2B,W
01628:  BTFSS  FD8.0
0162A:  BRA    1632
0162C:  MOVLB  0
0162E:  GOTO   1666
01632:  MOVLB  0
....................             spi_xfer(FLASH_STREAM1, write_data[spi_xfer_num]);
01634:  MOVLB  2
01636:  MOVF   x23,W
01638:  ADDWF  x2B,W
0163A:  MOVWF  FE9
0163C:  MOVF   x24,W
0163E:  ADDWFC x2C,W
01640:  MOVWF  FEA
01642:  MOVFF  FEF,22D
01646:  MOVFF  22D,23E
0164A:  MOVLW  08
0164C:  MOVWF  x3F
0164E:  MOVLW  01
01650:  MOVWF  x40
01652:  MOVLB  0
01654:  CALL   0C3A
01658:  MOVLB  2
0165A:  INCF   x2B,F
0165C:  BTFSC  FD8.2
0165E:  INCF   x2C,F
01660:  MOVLB  0
01662:  GOTO   160A
....................          break;
01666:  GOTO   166E
....................          
....................       default:
....................          break;
0166A:  GOTO   166E
....................    }
....................    return;
0166E:  RETURN 0
.................... }
.................... 
.................... ///////////////////////////////////////////////////////////////////////////////
.................... ///////////////////////////////////////////////////////////////////////////////
.................... ///////////////////////////////////////////////////////////////////////////////
.................... 
.................... void flash_setting(Flash flash_stream){
....................    output_high(flash_stream.cs_pin);
.................... }
....................  
.................... int8 status_register(Flash flash_stream){
01670:  MOVLW  05
01672:  MOVLB  2
01674:  MOVWF  x20
....................    int8 flash_cmd = CMD_READ_STATUS_REGISTER;
....................    int8 status_reg;
....................    output_low(flash_stream.cs_pin);                                              //lower the CS PIN
01676:  MOVFF  21E,222
0167A:  CLRF   x23
0167C:  MOVLW  0F
0167E:  MOVWF  x25
01680:  MOVLW  89
01682:  MOVWF  x24
01684:  MOVLB  0
01686:  CALL   0B86
0168A:  MOVFF  21E,222
0168E:  MOVLB  2
01690:  CLRF   x23
01692:  MOVLW  0F
01694:  MOVWF  x25
01696:  MOVLW  92
01698:  MOVWF  x24
0169A:  MOVLB  0
0169C:  CALL   0B86
....................    spi_xfer_and_read_select_stream(flash_stream, &flash_cmd, 1, &status_reg, 1);
016A0:  MOVFF  21F,225
016A4:  MOVFF  21E,224
016A8:  MOVFF  21D,223
016AC:  MOVFF  21C,222
016B0:  MOVLW  02
016B2:  MOVLB  2
016B4:  MOVWF  x27
016B6:  MOVLW  20
016B8:  MOVWF  x26
016BA:  CLRF   x29
016BC:  MOVLW  01
016BE:  MOVWF  x28
016C0:  MOVLW  02
016C2:  MOVWF  x2B
016C4:  MOVLW  21
016C6:  MOVWF  x2A
016C8:  CLRF   x2F
016CA:  CLRF   x2E
016CC:  CLRF   x2D
016CE:  MOVLW  01
016D0:  MOVWF  x2C
016D2:  MOVLB  0
016D4:  CALL   0C9A
....................    output_high(flash_stream.cs_pin);                                             //take CS PIN higher back
016D8:  MOVFF  21E,222
016DC:  MOVLW  01
016DE:  MOVLB  2
016E0:  MOVWF  x23
016E2:  MOVLW  0F
016E4:  MOVWF  x25
016E6:  MOVLW  89
016E8:  MOVWF  x24
016EA:  MOVLB  0
016EC:  CALL   0B86
016F0:  MOVFF  21E,222
016F4:  MOVLB  2
016F6:  CLRF   x23
016F8:  MOVLW  0F
016FA:  MOVWF  x25
016FC:  MOVLW  92
016FE:  MOVWF  x24
01700:  MOVLB  0
01702:  CALL   0B86
....................    #ifdef MT25Q_DEBUG
....................       if((status_reg & 0x01) == true)                                          //masking status bit   
....................          fprintf(PC,"flash busy\n\r");
....................    #endif
....................    return status_reg;  
01706:  MOVLB  2
01708:  MOVF   x21,W
0170A:  MOVWF  01
0170C:  MOVLB  0
0170E:  RETURN 0
.................... }
.................... 
.................... //
.................... //->success:True,fail:false 
.................... int8 read_id(Flash flash_stream){
....................    int8 flash_cmd = CMD_READ_ID;
....................    int8 chip_id[20];
....................    output_low(flash_stream.cs_pin);
....................    spi_xfer_and_read_select_stream(flash_stream, &flash_cmd, 1, chip_id, 16);
....................    output_high(flash_stream.cs_pin);
....................    #ifdef MT25Q_DEBUG
....................       fprintf(PC,"Read ID:");
....................       for(int8 print_counter = 0;print_counter < 20;print_counter++)
....................          fprintf(PC,"%x ",chip_id[print_counter]);
....................       fprintf(PC,"\r\n");
....................    #endif
....................    //chip id check
....................    if(chip_id[0] == MANUFACTURER_ID_MICRON){  
....................       #ifdef MT25Q_DEBUG
....................          fprintf(PC,"flash connect OK\r\n");
....................       #endif
....................       return true;
....................    }
....................    else{
....................       #ifdef MT25Q_DEBUG
....................          fprintf(PC,"flash not connect\r\n");
....................       #endif
....................       return false;
....................    }
.................... }
....................  
.................... void sector_erase(Flash flash_stream, unsigned int32 sector_address){
.................... //!   #ifdef MT25Q_DEBUG
.................... //!      fprintf(PC,"Sector Erase\r\n");
.................... //!   #endif
....................    if(flash_stream.flash_model == MT25QL128ABA){
....................       int8 write_enable_cmd = CMD_WRITE_ENABLE;
....................       unsigned int8 flash_cmd[4];
.................... //!      #ifdef MT25Q_DEBUG
.................... //!         fprintf(PC,"FLASH MODEL:MT25QL128ABA\r\n");
.................... //!      #endif
....................       flash_cmd[0] = CMD_SECTOR_ERASE;
....................       flash_cmd[1] = (unsigned int8)((sector_address>>16) & 0xff);   // 0x 00 _ _ 00 00
....................       flash_cmd[2] = (unsigned int8)((sector_address>>8) & 0xff);    // 0x 00 00 _ _ 00
....................       flash_cmd[3] = (unsigned int8)((sector_address) & 0xff);       // 0x 00 00 00 _ _
....................             
....................       //Write enable sequence
....................       output_low(flash_stream.cs_pin);
....................       spi_xfer_select_stream(flash_stream, &write_enable_cmd, 1);
....................       output_high(flash_stream.cs_pin);
....................       //Write enabled
....................       
....................       output_low(flash_stream.cs_pin);
....................       ///////////////////////////////////////////////////////////////////
....................       spi_xfer_select_stream(flash_stream, flash_cmd, 4);
....................       //////////////////////////////////////////////////////////////////
....................       output_high(flash_stream.cs_pin);            //take CS PIN higher back
....................    }
....................    else if(flash_stream.flash_model == MT25QL01GBBB){
....................       int8 write_enable_cmd = CMD_WRITE_ENABLE;
....................       unsigned int8 flash_cmd[5];
.................... //!      #ifdef MT25Q_DEBUG
.................... //!         fprintf(PC,"FLASH MODEL:MT25QL01GBBB\r\n");
.................... //!      #endif
....................       flash_cmd[0] = CMD_4BYTE_SECTOR_ERASE;
....................       flash_cmd[1] = (unsigned int8)((sector_address>>24) & 0xff);   // 0x _ _ 00 00 00
....................       flash_cmd[2] = (unsigned int8)((sector_address>>16) & 0xff);   // 0x 00 _ _ 00 00
....................       flash_cmd[3] = (unsigned int8)((sector_address>>8) & 0xff);    // 0x 00 00 _ _ 00
....................       flash_cmd[4] = (unsigned int8)((sector_address) & 0xff);       // 0x 00 00 00 _ _
....................       
....................       //Write enable sequence
....................       output_low(flash_stream.cs_pin);
....................       spi_xfer_select_stream(flash_stream, &write_enable_cmd, 1);
....................       output_high(flash_stream.cs_pin);
....................       //Write enabled
....................       
....................       output_low(flash_stream.cs_pin);
....................       ///////////////////////////////////////////////////////////////////
....................       spi_xfer_select_stream(flash_stream, flash_cmd, 5);
....................       //////////////////////////////////////////////////////////////////
....................       output_high(flash_stream.cs_pin);            //take CS PIN higher back
....................    }
....................    
....................    else{
....................       #ifdef MT25Q_DEBUG
....................          fprintf(PC,"error:flash model is invalid\r\n");
....................       #endif
....................    }
....................    
....................    //wait process finished
....................    unsigned int8 timeout_counter = 0;
....................    while((status_register(flash_stream) & 0x01) == 1){      //masking status bit
....................       if(timeout_counter > 10)
....................          delay_ms(200);
....................       else
....................          delay_ms(10);   
....................       
....................       if(timeout_counter > 100){
....................          #ifdef MT25Q_DEBUG
....................             fprintf(PC,"flash timeout\r\n");
....................          #endif
....................          break;
....................       }  
....................       timeout_counter++;
....................    }
....................    #ifdef MT25Q_DEBUG
....................       fprintf(PC,"flash sector erase complete\r\n");
....................    #endif
....................    return;
.................... }
....................  
.................... void subsector_32kByte_erase(Flash flash_stream, unsigned int32 subsector_address){
....................    if(flash_stream.flash_model == MT25QL128ABA){
....................       int8 write_enable_cmd = CMD_WRITE_ENABLE;
....................       unsigned int8 flash_cmd[4];
....................       
....................       flash_cmd[0] = CMD_SUBSECTOR_32KB_ERASE;
....................       flash_cmd[1] = (unsigned int8)((subsector_address>>16) & 0xff);   // 0x 00 _ _ 00 00
....................       flash_cmd[2] = (unsigned int8)((subsector_address>>8) & 0xff);    // 0x 00 00 _ _ 00
....................       flash_cmd[3] = (unsigned int8)((subsector_address) & 0xff);       // 0x 00 00 00 _ _
....................             
....................       //Write enable sequence
....................       output_low(flash_stream.cs_pin);
....................       spi_xfer_select_stream(flash_stream, &write_enable_cmd, 1);
....................       output_high(flash_stream.cs_pin);
....................       //Write enabled
....................       
....................       output_low(flash_stream.cs_pin);
....................       ///////////////////////////////////////////////////////////////////
....................       spi_xfer_select_stream(flash_stream, flash_cmd, 4);
....................       //////////////////////////////////////////////////////////////////
....................       output_high(flash_stream.cs_pin);            //take CS PIN higher back
....................    }
....................    else if(flash_stream.flash_model == MT25QL01GBBB){
....................       int8 write_enable_cmd = CMD_WRITE_ENABLE;
....................       unsigned int8 flash_cmd[5];
....................       
....................       flash_cmd[0] = CMD_4BYTE_SUBSECTOR_32KB_ERASE;
....................       flash_cmd[1] = (unsigned int8)((subsector_address>>24) & 0xff);   // 0x _ _ 00 00 00
....................       flash_cmd[2] = (unsigned int8)((subsector_address>>16) & 0xff);   // 0x 00 _ _ 00 00
....................       flash_cmd[3] = (unsigned int8)((subsector_address>>8) & 0xff);    // 0x 00 00 _ _ 00
....................       flash_cmd[4] = (unsigned int8)((subsector_address) & 0xff);       // 0x 00 00 00 _ _
....................       
....................       //Write enable sequence
....................       output_low(flash_stream.cs_pin);
....................       spi_xfer_select_stream(flash_stream, &write_enable_cmd, 1);
....................       output_high(flash_stream.cs_pin);
....................       //Write enabled
....................       
....................       output_low(flash_stream.cs_pin);
....................       ///////////////////////////////////////////////////////////////////
....................       spi_xfer_select_stream(flash_stream, flash_cmd, 5);
....................       //////////////////////////////////////////////////////////////////
....................       output_high(flash_stream.cs_pin);            //take CS PIN higher back
....................    }
....................    
....................    else{
....................       #ifdef MT25Q_DEBUG
....................          fprintf(PC,"error:flash model is invalid\r\n");
....................       #endif
....................    }
....................    
....................    //wait process finished
....................    unsigned int8 timeout_counter = 0;
....................    while((status_register(flash_stream) & 0x01) == 1){                  //masking status bit
....................       if(timeout_counter > 10)
....................          delay_ms(200);
....................       else
....................          delay_ms(10);   
....................       
....................       if(timeout_counter > 100){
....................          #ifdef MT25Q_DEBUG
....................             fprintf(PC,"flash timeout\r\n");
....................          #endif
....................          break;
....................       }  
....................       timeout_counter++;
....................    }
....................    #ifdef MT25Q_DEBUG
....................       fprintf(PC,"flash 32kByte subsector erase complete\r\n");
....................    #endif
....................    return;
.................... }
....................  
.................... void subsector_4kByte_erase(Flash flash_stream, unsigned int32 subsector_address){
....................    if(flash_stream.flash_model == MT25QL128ABA){
*
01BB0:  MOVLB  1
01BB2:  MOVF   xF5,F
01BB4:  BTFSC  FD8.2
01BB6:  BRA    1BBE
01BB8:  MOVLB  0
01BBA:  GOTO   1D1A
01BBE:  MOVLB  0
....................       int8 write_enable_cmd = CMD_WRITE_ENABLE;
....................       unsigned int8 flash_cmd[4];
01BC0:  MOVLW  06
01BC2:  MOVLB  1
01BC4:  MOVWF  xFC
01BC6:  MOVLB  0
....................       
....................       flash_cmd[0] = CMD_SUBSECTOR_4KB_ERASE;
01BC8:  MOVLW  20
01BCA:  MOVLB  1
01BCC:  MOVWF  xFD
....................       flash_cmd[1] = (unsigned int8)((subsector_address>>16) & 0xff);   // 0x 00 _ _ 00 00
01BCE:  MOVFF  1FA,209
01BD2:  MOVFF  1FB,20A
01BD6:  MOVLB  2
01BD8:  CLRF   x0B
01BDA:  CLRF   x0C
01BDC:  MOVF   x09,W
01BDE:  MOVWF  00
01BE0:  CLRF   01
01BE2:  CLRF   02
01BE4:  CLRF   03
01BE6:  MOVFF  00,1FE
....................       flash_cmd[2] = (unsigned int8)((subsector_address>>8) & 0xff);    // 0x 00 00 _ _ 00
01BEA:  MOVFF  1F9,209
01BEE:  MOVFF  1FA,20A
01BF2:  MOVFF  1FB,20B
01BF6:  CLRF   x0C
01BF8:  MOVF   x09,W
01BFA:  MOVWF  00
01BFC:  CLRF   01
01BFE:  CLRF   02
01C00:  CLRF   03
01C02:  MOVFF  00,1FF
....................       flash_cmd[3] = (unsigned int8)((subsector_address) & 0xff);       // 0x 00 00 00 _ _
01C06:  MOVLB  1
01C08:  MOVF   xF8,W
01C0A:  MOVWF  00
01C0C:  CLRF   01
01C0E:  CLRF   02
01C10:  CLRF   03
01C12:  MOVFF  00,200
....................             
....................       //Write enable sequence
....................       output_low(flash_stream.cs_pin);
01C16:  MOVFF  1F6,222
01C1A:  MOVLB  2
01C1C:  CLRF   x23
01C1E:  MOVLW  0F
01C20:  MOVWF  x25
01C22:  MOVLW  89
01C24:  MOVWF  x24
01C26:  MOVLB  0
01C28:  CALL   0B86
01C2C:  MOVFF  1F6,222
01C30:  MOVLB  2
01C32:  CLRF   x23
01C34:  MOVLW  0F
01C36:  MOVWF  x25
01C38:  MOVLW  92
01C3A:  MOVWF  x24
01C3C:  MOVLB  0
01C3E:  CALL   0B86
....................       spi_xfer_select_stream(flash_stream, &write_enable_cmd, 1);
01C42:  MOVFF  1F7,21F
01C46:  MOVFF  1F6,21E
01C4A:  MOVFF  1F5,21D
01C4E:  MOVFF  1F4,21C
01C52:  MOVLW  01
01C54:  MOVLB  2
01C56:  MOVWF  x21
01C58:  MOVLW  FC
01C5A:  MOVWF  x20
01C5C:  CLRF   x23
01C5E:  MOVLW  01
01C60:  MOVWF  x22
01C62:  MOVLB  0
01C64:  CALL   1404
....................       output_high(flash_stream.cs_pin);
01C68:  MOVFF  1F6,222
01C6C:  MOVLW  01
01C6E:  MOVLB  2
01C70:  MOVWF  x23
01C72:  MOVLW  0F
01C74:  MOVWF  x25
01C76:  MOVLW  89
01C78:  MOVWF  x24
01C7A:  MOVLB  0
01C7C:  CALL   0B86
01C80:  MOVFF  1F6,222
01C84:  MOVLB  2
01C86:  CLRF   x23
01C88:  MOVLW  0F
01C8A:  MOVWF  x25
01C8C:  MOVLW  92
01C8E:  MOVWF  x24
01C90:  MOVLB  0
01C92:  CALL   0B86
....................       //Write enabled
....................       
....................       output_low(flash_stream.cs_pin);
01C96:  MOVFF  1F6,222
01C9A:  MOVLB  2
01C9C:  CLRF   x23
01C9E:  MOVLW  0F
01CA0:  MOVWF  x25
01CA2:  MOVLW  89
01CA4:  MOVWF  x24
01CA6:  MOVLB  0
01CA8:  CALL   0B86
01CAC:  MOVFF  1F6,222
01CB0:  MOVLB  2
01CB2:  CLRF   x23
01CB4:  MOVLW  0F
01CB6:  MOVWF  x25
01CB8:  MOVLW  92
01CBA:  MOVWF  x24
01CBC:  MOVLB  0
01CBE:  CALL   0B86
....................       ///////////////////////////////////////////////////////////////////
....................       spi_xfer_select_stream(flash_stream, flash_cmd, 4);
01CC2:  MOVFF  1F7,21F
01CC6:  MOVFF  1F6,21E
01CCA:  MOVFF  1F5,21D
01CCE:  MOVFF  1F4,21C
01CD2:  MOVLW  01
01CD4:  MOVLB  2
01CD6:  MOVWF  x21
01CD8:  MOVLW  FD
01CDA:  MOVWF  x20
01CDC:  CLRF   x23
01CDE:  MOVLW  04
01CE0:  MOVWF  x22
01CE2:  MOVLB  0
01CE4:  CALL   1404
....................       //////////////////////////////////////////////////////////////////
....................       output_high(flash_stream.cs_pin);            //take CS PIN higher back
01CE8:  MOVFF  1F6,222
01CEC:  MOVLW  01
01CEE:  MOVLB  2
01CF0:  MOVWF  x23
01CF2:  MOVLW  0F
01CF4:  MOVWF  x25
01CF6:  MOVLW  89
01CF8:  MOVWF  x24
01CFA:  MOVLB  0
01CFC:  CALL   0B86
01D00:  MOVFF  1F6,222
01D04:  MOVLB  2
01D06:  CLRF   x23
01D08:  MOVLW  0F
01D0A:  MOVWF  x25
01D0C:  MOVLW  92
01D0E:  MOVWF  x24
01D10:  MOVLB  0
01D12:  CALL   0B86
....................    }
01D16:  GOTO   1E9C
....................    else if(flash_stream.flash_model == MT25QL01GBBB){
01D1A:  MOVLB  1
01D1C:  DECFSZ xF5,W
01D1E:  BRA    1D24
01D20:  BRA    1D2A
01D22:  MOVLB  0
01D24:  MOVLB  0
01D26:  GOTO   1E9C
01D2A:  MOVLB  0
....................       int8 write_enable_cmd = CMD_WRITE_ENABLE;
....................       unsigned int8 flash_cmd[5];
01D2C:  MOVLW  06
01D2E:  MOVLB  2
01D30:  MOVWF  x01
01D32:  MOVLB  0
....................       
....................       flash_cmd[0] = CMD_4BYTE_SUBSECTOR_4KB_ERASE;
01D34:  MOVLW  21
01D36:  MOVLB  2
01D38:  MOVWF  x02
....................       flash_cmd[1] = (unsigned int8)((subsector_address>>24) & 0xff);   // 0x _ _ 00 00 00
01D3A:  MOVFF  1FB,209
01D3E:  CLRF   x0A
01D40:  CLRF   x0B
01D42:  CLRF   x0C
01D44:  MOVF   x09,W
01D46:  MOVWF  00
01D48:  CLRF   01
01D4A:  CLRF   02
01D4C:  CLRF   03
01D4E:  MOVFF  00,203
....................       flash_cmd[2] = (unsigned int8)((subsector_address>>16) & 0xff);   // 0x 00 _ _ 00 00
01D52:  MOVFF  1FA,209
01D56:  MOVFF  1FB,20A
01D5A:  CLRF   x0B
01D5C:  CLRF   x0C
01D5E:  MOVF   x09,W
01D60:  MOVWF  00
01D62:  CLRF   01
01D64:  CLRF   02
01D66:  CLRF   03
01D68:  MOVFF  00,204
....................       flash_cmd[3] = (unsigned int8)((subsector_address>>8) & 0xff);    // 0x 00 00 _ _ 00
01D6C:  MOVFF  1F9,209
01D70:  MOVFF  1FA,20A
01D74:  MOVFF  1FB,20B
01D78:  CLRF   x0C
01D7A:  MOVF   x09,W
01D7C:  MOVWF  00
01D7E:  CLRF   01
01D80:  CLRF   02
01D82:  CLRF   03
01D84:  MOVFF  00,205
....................       flash_cmd[4] = (unsigned int8)((subsector_address) & 0xff);       // 0x 00 00 00 _ _
01D88:  MOVLB  1
01D8A:  MOVF   xF8,W
01D8C:  MOVWF  00
01D8E:  CLRF   01
01D90:  CLRF   02
01D92:  CLRF   03
01D94:  MOVFF  00,206
....................       
....................       //Write enable sequence
....................       output_low(flash_stream.cs_pin);
01D98:  MOVFF  1F6,222
01D9C:  MOVLB  2
01D9E:  CLRF   x23
01DA0:  MOVLW  0F
01DA2:  MOVWF  x25
01DA4:  MOVLW  89
01DA6:  MOVWF  x24
01DA8:  MOVLB  0
01DAA:  CALL   0B86
01DAE:  MOVFF  1F6,222
01DB2:  MOVLB  2
01DB4:  CLRF   x23
01DB6:  MOVLW  0F
01DB8:  MOVWF  x25
01DBA:  MOVLW  92
01DBC:  MOVWF  x24
01DBE:  MOVLB  0
01DC0:  CALL   0B86
....................       spi_xfer_select_stream(flash_stream, &write_enable_cmd, 1);
01DC4:  MOVFF  1F7,21F
01DC8:  MOVFF  1F6,21E
01DCC:  MOVFF  1F5,21D
01DD0:  MOVFF  1F4,21C
01DD4:  MOVLW  02
01DD6:  MOVLB  2
01DD8:  MOVWF  x21
01DDA:  MOVLW  01
01DDC:  MOVWF  x20
01DDE:  CLRF   x23
01DE0:  MOVLW  01
01DE2:  MOVWF  x22
01DE4:  MOVLB  0
01DE6:  CALL   1404
....................       output_high(flash_stream.cs_pin);
01DEA:  MOVFF  1F6,222
01DEE:  MOVLW  01
01DF0:  MOVLB  2
01DF2:  MOVWF  x23
01DF4:  MOVLW  0F
01DF6:  MOVWF  x25
01DF8:  MOVLW  89
01DFA:  MOVWF  x24
01DFC:  MOVLB  0
01DFE:  CALL   0B86
01E02:  MOVFF  1F6,222
01E06:  MOVLB  2
01E08:  CLRF   x23
01E0A:  MOVLW  0F
01E0C:  MOVWF  x25
01E0E:  MOVLW  92
01E10:  MOVWF  x24
01E12:  MOVLB  0
01E14:  CALL   0B86
....................       //Write enabled
....................       
....................       output_low(flash_stream.cs_pin);
01E18:  MOVFF  1F6,222
01E1C:  MOVLB  2
01E1E:  CLRF   x23
01E20:  MOVLW  0F
01E22:  MOVWF  x25
01E24:  MOVLW  89
01E26:  MOVWF  x24
01E28:  MOVLB  0
01E2A:  CALL   0B86
01E2E:  MOVFF  1F6,222
01E32:  MOVLB  2
01E34:  CLRF   x23
01E36:  MOVLW  0F
01E38:  MOVWF  x25
01E3A:  MOVLW  92
01E3C:  MOVWF  x24
01E3E:  MOVLB  0
01E40:  CALL   0B86
....................       ///////////////////////////////////////////////////////////////////
....................       spi_xfer_select_stream(flash_stream, flash_cmd, 5);
01E44:  MOVFF  1F7,21F
01E48:  MOVFF  1F6,21E
01E4C:  MOVFF  1F5,21D
01E50:  MOVFF  1F4,21C
01E54:  MOVLW  02
01E56:  MOVLB  2
01E58:  MOVWF  x21
01E5A:  MOVLW  02
01E5C:  MOVWF  x20
01E5E:  CLRF   x23
01E60:  MOVLW  05
01E62:  MOVWF  x22
01E64:  MOVLB  0
01E66:  CALL   1404
....................       //////////////////////////////////////////////////////////////////
....................       output_high(flash_stream.cs_pin);            //take CS PIN higher back
01E6A:  MOVFF  1F6,222
01E6E:  MOVLW  01
01E70:  MOVLB  2
01E72:  MOVWF  x23
01E74:  MOVLW  0F
01E76:  MOVWF  x25
01E78:  MOVLW  89
01E7A:  MOVWF  x24
01E7C:  MOVLB  0
01E7E:  CALL   0B86
01E82:  MOVFF  1F6,222
01E86:  MOVLB  2
01E88:  CLRF   x23
01E8A:  MOVLW  0F
01E8C:  MOVWF  x25
01E8E:  MOVLW  92
01E90:  MOVWF  x24
01E92:  MOVLB  0
01E94:  CALL   0B86
....................    }
01E98:  GOTO   1E9C
....................    
....................    else{
....................       #ifdef MT25Q_DEBUG
....................          fprintf(PC,"error:flash model is invalid\r\n");
....................       #endif
....................    }
....................    
....................    //wait process finished
....................    unsigned int8 timeout_counter = 0;
01E9C:  MOVLB  2
01E9E:  CLRF   x07
01EA0:  MOVLB  0
....................    while((status_register(flash_stream) & 0x01) == 1){                           //masking status bit
01EA2:  MOVFF  1F7,21F
01EA6:  MOVFF  1F6,21E
01EAA:  MOVFF  1F5,21D
01EAE:  MOVFF  1F4,21C
01EB2:  CALL   1670
01EB6:  MOVF   01,W
01EB8:  ANDLW  01
01EBA:  SUBLW  01
01EBC:  BTFSS  FD8.2
01EBE:  GOTO   1F10
....................       if(timeout_counter > 10)
01EC2:  MOVLB  2
01EC4:  MOVF   x07,W
01EC6:  SUBLW  0A
01EC8:  BTFSS  FD8.0
01ECA:  BRA    1ED2
01ECC:  MOVLB  0
01ECE:  GOTO   1EE4
01ED2:  MOVLB  0
....................          delay_ms(200);
01ED4:  MOVLW  C8
01ED6:  MOVLB  2
01ED8:  MOVWF  x1C
01EDA:  MOVLB  0
01EDC:  CALL   0996
01EE0:  GOTO   1EF0
....................       else
....................          delay_ms(10);   
01EE4:  MOVLW  0A
01EE6:  MOVLB  2
01EE8:  MOVWF  x1C
01EEA:  MOVLB  0
01EEC:  CALL   0996
....................       
....................       if(timeout_counter > 100){
01EF0:  MOVLB  2
01EF2:  MOVF   x07,W
01EF4:  SUBLW  64
01EF6:  BTFSS  FD8.0
01EF8:  BRA    1F00
01EFA:  MOVLB  0
01EFC:  GOTO   1F06
01F00:  MOVLB  0
....................          #ifdef MT25Q_DEBUG
....................             fprintf(PC,"flash timeout\r\n");
....................          #endif
....................          break;
01F02:  GOTO   1F10
....................       }  
....................       timeout_counter++;
01F06:  MOVLB  2
01F08:  INCF   x07,F
01F0A:  MOVLB  0
01F0C:  GOTO   1EA2
....................    }
....................    #ifdef MT25Q_DEBUG
....................       fprintf(PC,"flash 4kByte subsector erase complete\r\n");
....................    #endif
....................    return;
01F10:  GOTO   1F5A (RETURN)
.................... }
....................  
.................... int8 read_data_byte(Flash flash_stream, unsigned int32 read_address){
....................    int8 read_data;
....................    if(flash_stream.flash_model == MT25QL128ABA){
....................       unsigned int8 flash_cmd[4];
....................       
....................       flash_cmd[0] = CMD_READ;
....................       flash_cmd[1] = (unsigned int8)((read_address>>16) & 0xff);   // 0x 00 _ _ 00 00
....................       flash_cmd[2] = (unsigned int8)((read_address>>8) & 0xff);    // 0x 00 00 _ _ 00
....................       flash_cmd[3] = (unsigned int8)((read_address) & 0xff);       // 0x 00 00 00 _ _
....................             
....................       output_low(flash_stream.cs_pin);
....................       ///////////////////////////////////////////////////////////////////
....................       spi_xfer_and_read_select_stream(flash_stream, flash_cmd, 4, &read_data, 1);
....................       //////////////////////////////////////////////////////////////////
....................       delay_us(2);
....................       output_high(flash_stream.cs_pin);            //take CS PIN higher back
....................    }
....................    else if(flash_stream.flash_model == MT25QL01GBBB){
....................       unsigned int8 flash_cmd[5];
....................       
....................       flash_cmd[0] = CMD_4BYTE_READ;
....................       flash_cmd[1] = (unsigned int8)((read_address>>24) & 0xff);   // 0x _ _ 00 00 00
....................       flash_cmd[2] = (unsigned int8)((read_address>>16) & 0xff);   // 0x 00 _ _ 00 00
....................       flash_cmd[3] = (unsigned int8)((read_address>>8) & 0xff);    // 0x 00 00 _ _ 00
....................       flash_cmd[4] = (unsigned int8)((read_address) & 0xff);       // 0x 00 00 00 _ _
....................    
....................       output_low(flash_stream.cs_pin);
....................       ///////////////////////////////////////////////////////////////////
....................       spi_xfer_and_read_select_stream(flash_stream, flash_cmd, 5, &read_data, 1);
....................       //////////////////////////////////////////////////////////////////
....................       delay_us(2);
....................       output_high(flash_stream.cs_pin);            //take CS PIN higher back
....................    }
....................    return read_data;
.................... }
....................  
.................... void read_data_bytes(Flash flash_stream, unsigned int32 read_start_address, int8 *read_data, unsigned int32 read_amount)
.................... {
....................    if(flash_stream.flash_model == MT25QL128ABA){
*
00FBA:  MOVLB  1
00FBC:  MOVF   xAD,F
00FBE:  BTFSC  FD8.2
00FC0:  BRA    0FC8
00FC2:  MOVLB  0
00FC4:  GOTO   10BA
00FC8:  MOVLB  0
....................       unsigned int8 flash_cmd[4];
....................       
....................       flash_cmd[0] = CMD_READ;
00FCA:  MOVLW  03
00FCC:  MOVLB  1
00FCE:  MOVWF  xBA
....................       flash_cmd[1] = (unsigned int8)((read_start_address>>16) & 0xff);   // 0x 00 _ _ 00 00
00FD0:  MOVFF  1B2,1C4
00FD4:  MOVFF  1B3,1C5
00FD8:  CLRF   xC6
00FDA:  CLRF   xC7
00FDC:  MOVF   xC4,W
00FDE:  MOVWF  00
00FE0:  CLRF   01
00FE2:  CLRF   02
00FE4:  CLRF   03
00FE6:  MOVFF  00,1BB
....................       flash_cmd[2] = (unsigned int8)((read_start_address>>8) & 0xff);    // 0x 00 00 _ _ 00
00FEA:  MOVFF  1B1,1C4
00FEE:  MOVFF  1B2,1C5
00FF2:  MOVFF  1B3,1C6
00FF6:  CLRF   xC7
00FF8:  MOVF   xC4,W
00FFA:  MOVWF  00
00FFC:  CLRF   01
00FFE:  CLRF   02
01000:  CLRF   03
01002:  MOVFF  00,1BC
....................       flash_cmd[3] = (unsigned int8)((read_start_address) & 0xff);       // 0x 00 00 00 _ _
01006:  MOVF   xB0,W
01008:  MOVWF  00
0100A:  CLRF   01
0100C:  CLRF   02
0100E:  CLRF   03
01010:  MOVFF  00,1BD
....................             
....................       output_low(flash_stream.cs_pin);
01014:  MOVFF  1AE,222
01018:  MOVLB  2
0101A:  CLRF   x23
0101C:  MOVLW  0F
0101E:  MOVWF  x25
01020:  MOVLW  89
01022:  MOVWF  x24
01024:  MOVLB  0
01026:  CALL   0B86
0102A:  MOVFF  1AE,222
0102E:  MOVLB  2
01030:  CLRF   x23
01032:  MOVLW  0F
01034:  MOVWF  x25
01036:  MOVLW  92
01038:  MOVWF  x24
0103A:  MOVLB  0
0103C:  CALL   0B86
....................       ///////////////////////////////////////////////////////////////////
....................       spi_xfer_and_read_select_stream(flash_stream, flash_cmd, 4, read_data, read_amount);
01040:  MOVFF  1AF,225
01044:  MOVFF  1AE,224
01048:  MOVFF  1AD,223
0104C:  MOVFF  1AC,222
01050:  MOVLW  01
01052:  MOVLB  2
01054:  MOVWF  x27
01056:  MOVLW  BA
01058:  MOVWF  x26
0105A:  CLRF   x29
0105C:  MOVLW  04
0105E:  MOVWF  x28
01060:  MOVFF  1B5,22B
01064:  MOVFF  1B4,22A
01068:  MOVFF  1B9,22F
0106C:  MOVFF  1B8,22E
01070:  MOVFF  1B7,22D
01074:  MOVFF  1B6,22C
01078:  MOVLB  0
0107A:  CALL   0C9A
....................       //////////////////////////////////////////////////////////////////
....................       delay_us(2);
0107E:  MOVLW  02
01080:  MOVWF  00
01082:  DECFSZ 00,F
01084:  BRA    1082
01086:  NOP   
....................       output_high(flash_stream.cs_pin);            //take CS PIN higher back
01088:  MOVFF  1AE,222
0108C:  MOVLW  01
0108E:  MOVLB  2
01090:  MOVWF  x23
01092:  MOVLW  0F
01094:  MOVWF  x25
01096:  MOVLW  89
01098:  MOVWF  x24
0109A:  MOVLB  0
0109C:  CALL   0B86
010A0:  MOVFF  1AE,222
010A4:  MOVLB  2
010A6:  CLRF   x23
010A8:  MOVLW  0F
010AA:  MOVWF  x25
010AC:  MOVLW  92
010AE:  MOVWF  x24
010B0:  MOVLB  0
010B2:  CALL   0B86
....................    }
010B6:  GOTO   11D0
....................    else if(flash_stream.flash_model == MT25QL01GBBB){
010BA:  MOVLB  1
010BC:  DECFSZ xAD,W
010BE:  BRA    10C4
010C0:  BRA    10CA
010C2:  MOVLB  0
010C4:  MOVLB  0
010C6:  GOTO   11D0
010CA:  MOVLB  0
....................       unsigned int8 flash_cmd[5];
....................       
....................       flash_cmd[0] = CMD_4BYTE_READ;
010CC:  MOVLW  13
010CE:  MOVLB  1
010D0:  MOVWF  xBE
....................       flash_cmd[1] = (unsigned int8)((read_start_address>>24) & 0xff);   // 0x _ _ 00 00 00
010D2:  MOVFF  1B3,1C4
010D6:  CLRF   xC5
010D8:  CLRF   xC6
010DA:  CLRF   xC7
010DC:  MOVF   xC4,W
010DE:  MOVWF  00
010E0:  CLRF   01
010E2:  CLRF   02
010E4:  CLRF   03
010E6:  MOVFF  00,1BF
....................       flash_cmd[2] = (unsigned int8)((read_start_address>>16) & 0xff);   // 0x 00 _ _ 00 00
010EA:  MOVFF  1B2,1C4
010EE:  MOVFF  1B3,1C5
010F2:  CLRF   xC6
010F4:  CLRF   xC7
010F6:  MOVF   xC4,W
010F8:  MOVWF  00
010FA:  CLRF   01
010FC:  CLRF   02
010FE:  CLRF   03
01100:  MOVFF  00,1C0
....................       flash_cmd[3] = (unsigned int8)((read_start_address>>8) & 0xff);    // 0x 00 00 _ _ 00
01104:  MOVFF  1B1,1C4
01108:  MOVFF  1B2,1C5
0110C:  MOVFF  1B3,1C6
01110:  CLRF   xC7
01112:  MOVF   xC4,W
01114:  MOVWF  00
01116:  CLRF   01
01118:  CLRF   02
0111A:  CLRF   03
0111C:  MOVFF  00,1C1
....................       flash_cmd[4] = (unsigned int8)((read_start_address) & 0xff);       // 0x 00 00 00 _ _
01120:  MOVF   xB0,W
01122:  MOVWF  00
01124:  CLRF   01
01126:  CLRF   02
01128:  CLRF   03
0112A:  MOVFF  00,1C2
....................    
....................       output_low(flash_stream.cs_pin);
0112E:  MOVFF  1AE,222
01132:  MOVLB  2
01134:  CLRF   x23
01136:  MOVLW  0F
01138:  MOVWF  x25
0113A:  MOVLW  89
0113C:  MOVWF  x24
0113E:  MOVLB  0
01140:  CALL   0B86
01144:  MOVFF  1AE,222
01148:  MOVLB  2
0114A:  CLRF   x23
0114C:  MOVLW  0F
0114E:  MOVWF  x25
01150:  MOVLW  92
01152:  MOVWF  x24
01154:  MOVLB  0
01156:  CALL   0B86
....................       ///////////////////////////////////////////////////////////////////
....................       spi_xfer_and_read_select_stream(flash_stream, flash_cmd, 5, read_data, read_amount);
0115A:  MOVFF  1AF,225
0115E:  MOVFF  1AE,224
01162:  MOVFF  1AD,223
01166:  MOVFF  1AC,222
0116A:  MOVLW  01
0116C:  MOVLB  2
0116E:  MOVWF  x27
01170:  MOVLW  BE
01172:  MOVWF  x26
01174:  CLRF   x29
01176:  MOVLW  05
01178:  MOVWF  x28
0117A:  MOVFF  1B5,22B
0117E:  MOVFF  1B4,22A
01182:  MOVFF  1B9,22F
01186:  MOVFF  1B8,22E
0118A:  MOVFF  1B7,22D
0118E:  MOVFF  1B6,22C
01192:  MOVLB  0
01194:  CALL   0C9A
....................       //////////////////////////////////////////////////////////////////
....................       delay_us(2);
01198:  MOVLW  02
0119A:  MOVWF  00
0119C:  DECFSZ 00,F
0119E:  BRA    119C
011A0:  NOP   
....................       output_high(flash_stream.cs_pin);            //take CS PIN higher back
011A2:  MOVFF  1AE,222
011A6:  MOVLW  01
011A8:  MOVLB  2
011AA:  MOVWF  x23
011AC:  MOVLW  0F
011AE:  MOVWF  x25
011B0:  MOVLW  89
011B2:  MOVWF  x24
011B4:  MOVLB  0
011B6:  CALL   0B86
011BA:  MOVFF  1AE,222
011BE:  MOVLB  2
011C0:  CLRF   x23
011C2:  MOVLW  0F
011C4:  MOVWF  x25
011C6:  MOVLW  92
011C8:  MOVWF  x24
011CA:  MOVLB  0
011CC:  CALL   0B86
....................    }
....................    return;
011D0:  RETURN 0
.................... }
....................  
.................... void write_data_byte(Flash flash_stream, unsigned int32 write_address,int8 write_data)
.................... {
....................    if(flash_stream.flash_model == MT25QL128ABA){
....................       int8 write_enable_cmd = CMD_WRITE_ENABLE;
....................       unsigned int8 flash_cmd[5];
....................       
....................       flash_cmd[0] = CMD_PAGE_PROGRAM;
....................       flash_cmd[1] = (unsigned int8)((write_address>>16) & 0xff);   // 0x 00 _ _ 00 00
....................       flash_cmd[2] = (unsigned int8)((write_address>>8) & 0xff);    // 0x 00 00 _ _ 00
....................       flash_cmd[3] = (unsigned int8)((write_address) & 0xff);       // 0x 00 00 00 _ _
....................       flash_cmd[4] = write_data;
.................... 
....................       //Write enable sequence
....................       output_low(flash_stream.cs_pin);
....................       spi_xfer_select_stream(flash_stream, &write_enable_cmd, 1);
....................       output_high(flash_stream.cs_pin);
....................       //Write enabled
....................       
....................       output_low(flash_stream.cs_pin);
....................       ///////////////////////////////////////////////////////////////////
....................       spi_xfer_select_stream(flash_stream, flash_cmd, 5);
....................       //////////////////////////////////////////////////////////////////
....................       delay_us(2);
....................       output_high(flash_stream.cs_pin);            //take CS PIN higher back
....................    }
....................    else if(flash_stream.flash_model == MT25QL01GBBB){
....................       int8 write_enable_cmd = CMD_WRITE_ENABLE;
....................       unsigned int8 flash_cmd[6];
....................       
....................       flash_cmd[0] = CMD_4BYTE_PAGE_PROGRAM;
....................       flash_cmd[1] = (unsigned int8)((write_address>>24) & 0xff);   // 0x _ _ 00 00 00
....................       flash_cmd[2] = (unsigned int8)((write_address>>16) & 0xff);   // 0x 00 _ _ 00 00
....................       flash_cmd[3] = (unsigned int8)((write_address>>8) & 0xff);    // 0x 00 00 _ _ 00
....................       flash_cmd[4] = (unsigned int8)((write_address) & 0xff);       // 0x 00 00 00 _ _
....................       flash_cmd[5] = write_data;
....................    
....................       //Write enable sequence
....................       output_low(flash_stream.cs_pin);
....................       spi_xfer_select_stream(flash_stream, &write_enable_cmd, 1);
....................       output_high(flash_stream.cs_pin);
....................       //Write enabled
....................       output_low(flash_stream.cs_pin);
....................       ///////////////////////////////////////////////////////////////////
....................       spi_xfer_select_stream(flash_stream, flash_cmd, 6);
....................       //////////////////////////////////////////////////////////////////
....................       delay_us(2);
....................       output_high(flash_stream.cs_pin);            //take CS PIN higher back
....................    }
....................    
....................    //wait process finished
....................    unsigned int8 timeout_counter = 0;
....................    while((status_register(flash_stream) & 0x01) == 1){                           //masking status bit
....................       if(timeout_counter > 10)
....................          delay_ms(200);
....................       else
....................          delay_ms(10);   
....................       
....................       if(timeout_counter > 100){
....................          #ifdef MT25Q_DEBUG
....................             fprintf(PC,"flash timeout\r\n");
....................          #endif
....................          break;
....................       }  
....................       timeout_counter++;
....................    }
....................    #ifdef MT25Q_DEBUG
....................       fprintf(PC,"flash write complete\r\n");
....................    #endif
....................    return;
.................... }
....................  
.................... void write_data_bytes(Flash flash_stream, unsigned int32 write_start_address, int8 *write_data, unsigned int16 write_amount){
....................    if(flash_stream.flash_model == MT25QL128ABA){
*
01710:  MOVLB  2
01712:  MOVF   x05,F
01714:  BTFSC  FD8.2
01716:  BRA    171E
01718:  MOVLB  0
0171A:  GOTO   188C
0171E:  MOVLB  0
....................       int8 write_enable_cmd = CMD_WRITE_ENABLE;
....................       unsigned int8 flash_cmd[4];
01720:  MOVLW  06
01722:  MOVLB  2
01724:  MOVWF  x10
01726:  MOVLB  0
....................       
....................       flash_cmd[0] = CMD_PAGE_PROGRAM;
01728:  MOVLW  02
0172A:  MOVLB  2
0172C:  MOVWF  x11
....................       flash_cmd[1] = (unsigned int8)((write_start_address>>16) & 0xff);   // 0x 00 _ _ 00 00
0172E:  MOVFF  20A,21D
01732:  MOVFF  20B,21E
01736:  CLRF   x1F
01738:  CLRF   x20
0173A:  MOVF   x1D,W
0173C:  MOVWF  00
0173E:  CLRF   01
01740:  CLRF   02
01742:  CLRF   03
01744:  MOVFF  00,212
....................       flash_cmd[2] = (unsigned int8)((write_start_address>>8) & 0xff);    // 0x 00 00 _ _ 00
01748:  MOVFF  209,21D
0174C:  MOVFF  20A,21E
01750:  MOVFF  20B,21F
01754:  CLRF   x20
01756:  MOVF   x1D,W
01758:  MOVWF  00
0175A:  CLRF   01
0175C:  CLRF   02
0175E:  CLRF   03
01760:  MOVFF  00,213
....................       flash_cmd[3] = (unsigned int8)((write_start_address) & 0xff);       // 0x 00 00 00 _ _
01764:  MOVF   x08,W
01766:  MOVWF  00
01768:  CLRF   01
0176A:  CLRF   02
0176C:  CLRF   03
0176E:  MOVFF  00,214
.................... 
....................       //fprintf(PC, "address:0x%08LX\r\n", write_start_address);
.................... 
....................       //Write enable sequence
....................       output_low(flash_stream.cs_pin);
01772:  MOVFF  206,222
01776:  CLRF   x23
01778:  MOVLW  0F
0177A:  MOVWF  x25
0177C:  MOVLW  89
0177E:  MOVWF  x24
01780:  MOVLB  0
01782:  CALL   0B86
01786:  MOVFF  206,222
0178A:  MOVLB  2
0178C:  CLRF   x23
0178E:  MOVLW  0F
01790:  MOVWF  x25
01792:  MOVLW  92
01794:  MOVWF  x24
01796:  MOVLB  0
01798:  CALL   0B86
....................       spi_xfer_select_stream(flash_stream, &write_enable_cmd, 1);
0179C:  MOVFF  207,21F
017A0:  MOVFF  206,21E
017A4:  MOVFF  205,21D
017A8:  MOVFF  204,21C
017AC:  MOVLW  02
017AE:  MOVLB  2
017B0:  MOVWF  x21
017B2:  MOVLW  10
017B4:  MOVWF  x20
017B6:  CLRF   x23
017B8:  MOVLW  01
017BA:  MOVWF  x22
017BC:  MOVLB  0
017BE:  CALL   1404
....................       output_high(flash_stream.cs_pin);
017C2:  MOVFF  206,222
017C6:  MOVLW  01
017C8:  MOVLB  2
017CA:  MOVWF  x23
017CC:  MOVLW  0F
017CE:  MOVWF  x25
017D0:  MOVLW  89
017D2:  MOVWF  x24
017D4:  MOVLB  0
017D6:  CALL   0B86
017DA:  MOVFF  206,222
017DE:  MOVLB  2
017E0:  CLRF   x23
017E2:  MOVLW  0F
017E4:  MOVWF  x25
017E6:  MOVLW  92
017E8:  MOVWF  x24
017EA:  MOVLB  0
017EC:  CALL   0B86
....................       //Write enabled
....................       
....................       output_low(flash_stream.cs_pin);
017F0:  MOVFF  206,222
017F4:  MOVLB  2
017F6:  CLRF   x23
017F8:  MOVLW  0F
017FA:  MOVWF  x25
017FC:  MOVLW  89
017FE:  MOVWF  x24
01800:  MOVLB  0
01802:  CALL   0B86
01806:  MOVFF  206,222
0180A:  MOVLB  2
0180C:  CLRF   x23
0180E:  MOVLW  0F
01810:  MOVWF  x25
01812:  MOVLW  92
01814:  MOVWF  x24
01816:  MOVLB  0
01818:  CALL   0B86
....................       ///////////////////////////////////////////////////////////////////
....................       spi_xfer_two_datas_select_stream(flash_stream, flash_cmd, 4, write_data, write_amount);
0181C:  MOVFF  207,21F
01820:  MOVFF  206,21E
01824:  MOVFF  205,21D
01828:  MOVFF  204,21C
0182C:  MOVLW  02
0182E:  MOVLB  2
01830:  MOVWF  x21
01832:  MOVLW  11
01834:  MOVWF  x20
01836:  MOVLW  04
01838:  MOVWF  x22
0183A:  MOVFF  20D,224
0183E:  MOVFF  20C,223
01842:  MOVFF  20F,226
01846:  MOVFF  20E,225
0184A:  MOVLB  0
0184C:  CALL   14F4
....................       //////////////////////////////////////////////////////////////////
....................       delay_us(2);
01850:  MOVLW  02
01852:  MOVWF  00
01854:  DECFSZ 00,F
01856:  BRA    1854
01858:  NOP   
....................       output_high(flash_stream.cs_pin);            //take CS PIN higher back
0185A:  MOVFF  206,222
0185E:  MOVLW  01
01860:  MOVLB  2
01862:  MOVWF  x23
01864:  MOVLW  0F
01866:  MOVWF  x25
01868:  MOVLW  89
0186A:  MOVWF  x24
0186C:  MOVLB  0
0186E:  CALL   0B86
01872:  MOVFF  206,222
01876:  MOVLB  2
01878:  CLRF   x23
0187A:  MOVLW  0F
0187C:  MOVWF  x25
0187E:  MOVLW  92
01880:  MOVWF  x24
01882:  MOVLB  0
01884:  CALL   0B86
....................    }
01888:  GOTO   1A1E
....................    else if(flash_stream.flash_model == MT25QL01GBBB){
0188C:  MOVLB  2
0188E:  DECFSZ x05,W
01890:  BRA    1896
01892:  BRA    189C
01894:  MOVLB  0
01896:  MOVLB  0
01898:  GOTO   1A1E
0189C:  MOVLB  0
....................       int8 write_enable_cmd = CMD_WRITE_ENABLE;
....................       unsigned int8 flash_cmd[5];
0189E:  MOVLW  06
018A0:  MOVLB  2
018A2:  MOVWF  x15
018A4:  MOVLB  0
....................       
....................       flash_cmd[0] = CMD_4BYTE_PAGE_PROGRAM;
018A6:  MOVLW  12
018A8:  MOVLB  2
018AA:  MOVWF  x16
....................       flash_cmd[1] = (unsigned int8)((write_start_address>>24) & 0xff);   // 0x _ _ 00 00 00
018AC:  MOVFF  20B,21D
018B0:  CLRF   x1E
018B2:  CLRF   x1F
018B4:  CLRF   x20
018B6:  MOVF   x1D,W
018B8:  MOVWF  00
018BA:  CLRF   01
018BC:  CLRF   02
018BE:  CLRF   03
018C0:  MOVFF  00,217
....................       flash_cmd[2] = (unsigned int8)((write_start_address>>16) & 0xff);   // 0x 00 _ _ 00 00
018C4:  MOVFF  20A,21D
018C8:  MOVFF  20B,21E
018CC:  CLRF   x1F
018CE:  CLRF   x20
018D0:  MOVF   x1D,W
018D2:  MOVWF  00
018D4:  CLRF   01
018D6:  CLRF   02
018D8:  CLRF   03
018DA:  MOVFF  00,218
....................       flash_cmd[3] = (unsigned int8)((write_start_address>>8) & 0xff);    // 0x 00 00 _ _ 00
018DE:  MOVFF  209,21D
018E2:  MOVFF  20A,21E
018E6:  MOVFF  20B,21F
018EA:  CLRF   x20
018EC:  MOVF   x1D,W
018EE:  MOVWF  00
018F0:  CLRF   01
018F2:  CLRF   02
018F4:  CLRF   03
018F6:  MOVFF  00,219
....................       flash_cmd[4] = (unsigned int8)((write_start_address) & 0xff);       // 0x 00 00 00 _ _
018FA:  MOVF   x08,W
018FC:  MOVWF  00
018FE:  CLRF   01
01900:  CLRF   02
01902:  CLRF   03
01904:  MOVFF  00,21A
....................    
....................       //Write enable sequence
....................       output_low(flash_stream.cs_pin);
01908:  MOVFF  206,222
0190C:  CLRF   x23
0190E:  MOVLW  0F
01910:  MOVWF  x25
01912:  MOVLW  89
01914:  MOVWF  x24
01916:  MOVLB  0
01918:  CALL   0B86
0191C:  MOVFF  206,222
01920:  MOVLB  2
01922:  CLRF   x23
01924:  MOVLW  0F
01926:  MOVWF  x25
01928:  MOVLW  92
0192A:  MOVWF  x24
0192C:  MOVLB  0
0192E:  CALL   0B86
....................       spi_xfer_select_stream(flash_stream, &write_enable_cmd, 1);
01932:  MOVFF  207,21F
01936:  MOVFF  206,21E
0193A:  MOVFF  205,21D
0193E:  MOVFF  204,21C
01942:  MOVLW  02
01944:  MOVLB  2
01946:  MOVWF  x21
01948:  MOVLW  15
0194A:  MOVWF  x20
0194C:  CLRF   x23
0194E:  MOVLW  01
01950:  MOVWF  x22
01952:  MOVLB  0
01954:  CALL   1404
....................       output_high(flash_stream.cs_pin);
01958:  MOVFF  206,222
0195C:  MOVLW  01
0195E:  MOVLB  2
01960:  MOVWF  x23
01962:  MOVLW  0F
01964:  MOVWF  x25
01966:  MOVLW  89
01968:  MOVWF  x24
0196A:  MOVLB  0
0196C:  CALL   0B86
01970:  MOVFF  206,222
01974:  MOVLB  2
01976:  CLRF   x23
01978:  MOVLW  0F
0197A:  MOVWF  x25
0197C:  MOVLW  92
0197E:  MOVWF  x24
01980:  MOVLB  0
01982:  CALL   0B86
....................       //Write enabled
....................       output_low(flash_stream.cs_pin);
01986:  MOVFF  206,222
0198A:  MOVLB  2
0198C:  CLRF   x23
0198E:  MOVLW  0F
01990:  MOVWF  x25
01992:  MOVLW  89
01994:  MOVWF  x24
01996:  MOVLB  0
01998:  CALL   0B86
0199C:  MOVFF  206,222
019A0:  MOVLB  2
019A2:  CLRF   x23
019A4:  MOVLW  0F
019A6:  MOVWF  x25
019A8:  MOVLW  92
019AA:  MOVWF  x24
019AC:  MOVLB  0
019AE:  CALL   0B86
....................       ///////////////////////////////////////////////////////////////////
....................       spi_xfer_two_datas_select_stream(flash_stream, flash_cmd, 5, write_data, write_amount);
019B2:  MOVFF  207,21F
019B6:  MOVFF  206,21E
019BA:  MOVFF  205,21D
019BE:  MOVFF  204,21C
019C2:  MOVLW  02
019C4:  MOVLB  2
019C6:  MOVWF  x21
019C8:  MOVLW  16
019CA:  MOVWF  x20
019CC:  MOVLW  05
019CE:  MOVWF  x22
019D0:  MOVFF  20D,224
019D4:  MOVFF  20C,223
019D8:  MOVFF  20F,226
019DC:  MOVFF  20E,225
019E0:  MOVLB  0
019E2:  CALL   14F4
....................       //////////////////////////////////////////////////////////////////
....................       delay_us(2);
019E6:  MOVLW  02
019E8:  MOVWF  00
019EA:  DECFSZ 00,F
019EC:  BRA    19EA
019EE:  NOP   
....................       output_high(flash_stream.cs_pin);            //take CS PIN higher back
019F0:  MOVFF  206,222
019F4:  MOVLW  01
019F6:  MOVLB  2
019F8:  MOVWF  x23
019FA:  MOVLW  0F
019FC:  MOVWF  x25
019FE:  MOVLW  89
01A00:  MOVWF  x24
01A02:  MOVLB  0
01A04:  CALL   0B86
01A08:  MOVFF  206,222
01A0C:  MOVLB  2
01A0E:  CLRF   x23
01A10:  MOVLW  0F
01A12:  MOVWF  x25
01A14:  MOVLW  92
01A16:  MOVWF  x24
01A18:  MOVLB  0
01A1A:  CALL   0B86
....................    }
....................    
....................    //wait process finished
....................    unsigned int8 timeout_counter = 0;
01A1E:  MOVLB  2
01A20:  CLRF   x1B
01A22:  MOVLB  0
....................    while((status_register(flash_stream) & 0x01) == 1){                           //masking status bit
01A24:  MOVFF  207,21F
01A28:  MOVFF  206,21E
01A2C:  MOVFF  205,21D
01A30:  MOVFF  204,21C
01A34:  CALL   1670
01A38:  MOVF   01,W
01A3A:  ANDLW  01
01A3C:  SUBLW  01
01A3E:  BTFSS  FD8.2
01A40:  GOTO   1A92
....................       if(timeout_counter > 10)
01A44:  MOVLB  2
01A46:  MOVF   x1B,W
01A48:  SUBLW  0A
01A4A:  BTFSS  FD8.0
01A4C:  BRA    1A54
01A4E:  MOVLB  0
01A50:  GOTO   1A66
01A54:  MOVLB  0
....................          delay_ms(200);
01A56:  MOVLW  C8
01A58:  MOVLB  2
01A5A:  MOVWF  x1C
01A5C:  MOVLB  0
01A5E:  CALL   0996
01A62:  GOTO   1A72
....................       else
....................          delay_ms(10);   
01A66:  MOVLW  0A
01A68:  MOVLB  2
01A6A:  MOVWF  x1C
01A6C:  MOVLB  0
01A6E:  CALL   0996
....................       
....................       if(timeout_counter > 100){
01A72:  MOVLB  2
01A74:  MOVF   x1B,W
01A76:  SUBLW  64
01A78:  BTFSS  FD8.0
01A7A:  BRA    1A82
01A7C:  MOVLB  0
01A7E:  GOTO   1A88
01A82:  MOVLB  0
....................          #ifdef MT25Q_DEBUG
....................             fprintf(PC,"flash timeout\r\n");
....................          #endif
....................          break;
01A84:  GOTO   1A92
....................       }  
....................       timeout_counter++;
01A88:  MOVLB  2
01A8A:  INCF   x1B,F
01A8C:  MOVLB  0
01A8E:  GOTO   1A24
....................    }
....................    #ifdef MT25Q_DEBUG
....................       fprintf(PC,"flash write complete\r\n");
....................    #endif
....................    return;
01A92:  RETURN 0
.................... }
.................... 
....................  
.................... int1 is_connect(Flash flash_stream){
*
00ECE:  MOVLW  9F
00ED0:  MOVLB  1
00ED2:  MOVWF  xB4
....................    READ_ID_DATA read_id_data;
....................    int8 flash_cmd = CMD_READ_ID;
....................    output_low(flash_stream.cs_pin);
00ED4:  MOVFF  19E,222
00ED8:  MOVLB  2
00EDA:  CLRF   x23
00EDC:  MOVLW  0F
00EDE:  MOVWF  x25
00EE0:  MOVLW  89
00EE2:  MOVWF  x24
00EE4:  MOVLB  0
00EE6:  CALL   0B86
00EEA:  MOVFF  19E,222
00EEE:  MOVLB  2
00EF0:  CLRF   x23
00EF2:  MOVLW  0F
00EF4:  MOVWF  x25
00EF6:  MOVLW  92
00EF8:  MOVWF  x24
00EFA:  MOVLB  0
00EFC:  CALL   0B86
....................    delay_us(10);  
00F00:  MOVLW  0D
00F02:  MOVWF  00
00F04:  DECFSZ 00,F
00F06:  BRA    0F04
....................    spi_xfer_and_read_select_stream(flash_stream, &flash_cmd, 1, read_id_data.bytes, sizeof(read_id_data.bytes));
00F08:  MOVFF  19F,225
00F0C:  MOVFF  19E,224
00F10:  MOVFF  19D,223
00F14:  MOVFF  19C,222
00F18:  MOVLW  01
00F1A:  MOVLB  2
00F1C:  MOVWF  x27
00F1E:  MOVLW  B4
00F20:  MOVWF  x26
00F22:  CLRF   x29
00F24:  MOVLW  01
00F26:  MOVWF  x28
00F28:  MOVLW  01
00F2A:  MOVWF  x2B
00F2C:  MOVLW  A0
00F2E:  MOVWF  x2A
00F30:  CLRF   x2F
00F32:  CLRF   x2E
00F34:  CLRF   x2D
00F36:  MOVLW  14
00F38:  MOVWF  x2C
00F3A:  MOVLB  0
00F3C:  CALL   0C9A
....................    output_high(flash_stream.cs_pin);
00F40:  MOVFF  19E,222
00F44:  MOVLW  01
00F46:  MOVLB  2
00F48:  MOVWF  x23
00F4A:  MOVLW  0F
00F4C:  MOVWF  x25
00F4E:  MOVLW  89
00F50:  MOVWF  x24
00F52:  MOVLB  0
00F54:  CALL   0B86
00F58:  MOVFF  19E,222
00F5C:  MOVLB  2
00F5E:  CLRF   x23
00F60:  MOVLW  0F
00F62:  MOVWF  x25
00F64:  MOVLW  92
00F66:  MOVWF  x24
00F68:  MOVLB  0
00F6A:  CALL   0B86
....................    //fprintf(PC,"Read ID:%02X", read_id_data.fields.manufacturer_id);
....................    #ifdef MT25Q_DEBUG
....................       fprintf(PC,"Read ID:");
.................... 
....................    #endif
....................    //chip id check
....................    if(read_id_data.fields.manufacturer_id == MANUFACTURER_ID_MICRON){  
00F6E:  MOVLB  1
00F70:  MOVF   xA0,W
00F72:  SUBLW  20
00F74:  BTFSC  FD8.2
00F76:  BRA    0F7E
00F78:  MOVLB  0
00F7A:  GOTO   0F8C
00F7E:  MOVLB  0
....................       #ifdef MT25Q_DEBUG
....................          fprintf(PC,"flash connect OK\r\n");
....................       #endif
....................       return true;
00F80:  MOVLW  01
00F82:  MOVWF  01
00F84:  GOTO   0F94
....................    }
00F88:  GOTO   0F94
....................    else{
....................       #ifdef MT25Q_DEBUG
....................          fprintf(PC,"flash not connect\r\n");
....................       #endif
....................       return false;
00F8C:  MOVLW  00
00F8E:  MOVWF  01
00F90:  GOTO   0F94
....................    }
00F94:  RETURN 0
.................... }
.................... 
.................... #include "../../lib/tool/calc_tools.c"
.................... unsigned int8 calc_crc8(unsigned int8 *frame, unsigned int8 payload_size)
.................... {
....................    if (payload_size <= 0) return 0;
*
01A94:  MOVLB  2
01A96:  MOVF   x3C,F
01A98:  BTFSC  FD8.2
01A9A:  BRA    1AA2
01A9C:  MOVLB  0
01A9E:  GOTO   1AAC
01AA2:  MOVLB  0
01AA4:  MOVLW  00
01AA6:  MOVWF  01
01AA8:  GOTO   1AFE
.................... 
....................    unsigned int8 crc = *frame++;
01AAC:  MOVLB  2
01AAE:  MOVF   x3B,W
01AB0:  MOVWF  03
01AB2:  MOVF   x3A,W
01AB4:  INCF   x3A,F
01AB6:  BTFSC  FD8.2
01AB8:  INCF   x3B,F
01ABA:  MOVWF  FE9
01ABC:  MOVFF  03,FEA
01AC0:  MOVFF  FEF,23D
01AC4:  MOVLB  0
....................    while (--payload_size > 0)
01AC6:  MOVLB  2
01AC8:  DECF   x3C,F
01ACA:  MOVF   x3C,F
01ACC:  BTFSS  FD8.2
01ACE:  BRA    1AD6
01AD0:  MOVLB  0
01AD2:  GOTO   1AF6
01AD6:  MOVLB  0
....................       crc ^= *frame++;
01AD8:  MOVLB  2
01ADA:  MOVF   x3B,W
01ADC:  MOVWF  03
01ADE:  MOVF   x3A,W
01AE0:  INCF   x3A,F
01AE2:  BTFSC  FD8.2
01AE4:  INCF   x3B,F
01AE6:  MOVWF  FE9
01AE8:  MOVFF  03,FEA
01AEC:  MOVF   FEF,W
01AEE:  XORWF  x3D,F
01AF0:  MOVLB  0
01AF2:  GOTO   1AC6
.................... 
....................    return crc;
01AF6:  MOVLB  2
01AF8:  MOVF   x3D,W
01AFA:  MOVWF  01
01AFC:  MOVLB  0
01AFE:  RETURN 0
.................... }
.................... 
.................... int1 is_crc_valid(unsigned int8 *frame, int8 payload_size)
.................... {
....................    unsigned int8 received_crc = frame[payload_size - 1]; // CRC is the last byte
....................    unsigned int8 calculated_crc = calc_crc8(frame, payload_size - 1);
....................    return (received_crc == calculated_crc);
.................... }
.................... 
.................... void int32_to_be_array(int32 value, int8 *buf, int8 index)
.................... {
....................     buf[index + 0] = (int8)(value >> 24);   // MSB
....................     buf[index + 1] = (int8)(value >> 16);
....................     buf[index + 2] = (int8)(value >>  8);
....................     buf[index + 3] = (int8)(value      );   // LSB
.................... }
.................... 
.................... int32 lsb_array_to_int32(int8 *buf, int8 index)
.................... {
....................     return ((int32)buf[index + 0] <<  0) |
....................            ((int32)buf[index + 1] <<  8) |
....................            ((int32)buf[index + 2] << 16) |
....................            ((int32)buf[index + 3] << 24);
.................... }
.................... 
.................... 
.................... int32 msb_array_to_int32(int8 *buf, int8 index)
.................... {
....................     return ((int32)buf[index + 0] << 24) |
....................            ((int32)buf[index + 1] << 16) |
....................            ((int32)buf[index + 2] <<  8) |
....................            ((int32)buf[index + 3]);
.................... }
.................... 
.................... unsigned int32 int32_lsb_to_msb(unsigned int32 value)
.................... {
....................     return ((value & 0x000000FF) << 24) |
....................            ((value & 0x0000FF00) << 8)  |
....................            ((value & 0x00FF0000) >> 8)  |
....................            ((value & 0xFF000000) >> 24);
.................... }
.................... 
.................... unsigned int32 int32_msb_to_lsb(unsigned int32 value)
.................... {
....................     return ((value & 0xFF000000) >> 24) |
....................            ((value & 0x00FF0000) >> 8)  |
....................            ((value & 0x0000FF00) << 8)  |
....................            ((value & 0x000000FF) << 24);
.................... }
.................... // End of file
.................... 
.................... #include "../../lib/tool/smf_queue.c"
.................... #include "smf_queue.h"
.................... #ifndef SMF_QUEUE_H
.................... #define SMF_QUEUE_H
.................... 
.................... typedef enum {
....................    ENUM_SMF_WRITE,    // SMFжӣёгҒҚиҫјгҒҝж“ҚдҪң
....................    ENUM_SMF_READ,     // SMFиӘӯгҒҝиҫјгҒҝж“ҚдҪң
....................    ENUM_SMF_ERASE     // SMFж¶ҲеҺ»ж“ҚдҪң
.................... } FunctionType;
.................... 
.................... // SMFжӣёгҒҚиҫјгҒҝгғўгғјгғү
.................... typedef enum {
....................    SMF_WRITE_OVERWRITE = 0x00,  // дёҠжӣёгҒҚгғўгғјгғү
....................    SMF_WRITE_APPEND = 0x01,     // иҝҪиЁҳгғўгғјгғү
....................    SMF_WRITE_CIRCULAR = 0x02    // еҫӘз’°жӣёгҒҚиҫјгҒҝгғўгғјгғүпјҲendгҒҫгҒ§иЎҢгҒЈгҒҹгӮүstartгҒ«жҲ»гӮӢпјү
.................... } SmfWriteMode;
.................... 
.................... // гғҮгғјгӮҝгӮҪгғјгӮ№гӮҝгӮӨгғ—
.................... typedef enum {
....................    SOURCE_MISF_UNCOPIED = 0x00, // MISFжңӘгӮігғ”гғјгғҮгғјгӮҝгӮ’и»ўйҖҒ
....................    SOURCE_MISF_MANUAL = 0x01    // MISFжҢҮе®ҡгӮўгғүгғ¬гӮ№гғ»гӮөгӮӨгӮәгӮ’и»ўйҖҒ
.................... } DataSourceType;
.................... 
.................... 
.................... typedef enum{
....................    CIGS_DATA_TABLE,
....................    CIGS_PICLOG_DATA,
....................    CIGS_ENVIRO_DATA,
....................    CIGS_IV_HEADER,
....................    CIGS_IV_DATA,
.................... } MissionID;
.................... 
.................... 
.................... 
.................... typedef struct {
....................    int32 start_address;
....................    int32 end_address;
.................... } SmfAddressStruct;
.................... 
.................... typedef struct{
....................    int32 misf_start_address;
....................    int32 misf_size;
.................... } SmfWriteStruct;
.................... 
.................... typedef struct {
....................     MissionID mission_id;                // гғҹгғғгӮ·гғ§гғіID
....................     FunctionType func_type;         // ж“ҚдҪңгӮҝгӮӨгғ—
....................     SmfWriteMode write_mode;        // жӣёгҒҚиҫјгҒҝгғўгғјгғүпјҲжӣёгҒҚиҫјгҒҝжҷӮгҒ®гҒҝпјү
....................     DataSourceType source_type;     // гғҮгғјгӮҝгӮҪгғјгӮ№гӮҝгӮӨгғ—
....................     int32 misf_start_addr;          // MISFжүӢеӢ•жҢҮе®ҡжҷӮгҒ®й–Ӣе§ӢгӮўгғүгғ¬гӮ№
....................     int32 misf_size;                // MISFжүӢеӢ•жҢҮе®ҡжҷӮгҒ®гӮөгӮӨгӮә
.................... } FlashOperationStruct;
.................... 
.................... #define SMF_QUEUE_SIZE 16
.................... typedef struct {
....................    FlashOperationStruct entries[SMF_QUEUE_SIZE];  // гӮӯгғҘгғјгӮЁгғігғҲгғӘгғјй…ҚеҲ—
....................    int8 head_index;                               // еҸ–гӮҠеҮәгҒ—дҪҚзҪ®пјҲиӘӯгҒҝеҸ–гӮҠгӮӨгғігғҮгғғгӮҜгӮ№пјү
....................    int8 tail_index;                               // иҝҪеҠ дҪҚзҪ®пјҲжӣёгҒҚиҫјгҒҝгӮӨгғігғҮгғғгӮҜгӮ№пјү
.................... } FlashQueueStruct;
.................... 
.................... 
.................... 
.................... // _____________________ values _________________
.................... 
.................... volatile FlashQueueStruct flash_queue = {0};
.................... 
.................... // MISF/SMFзөұеҗҲз®ЎзҗҶгӮӨгғігӮ№гӮҝгғігӮ№пјҲгғҹгғғгӮ·гғ§гғіеҲҘпјү
.................... //volatile MisfSmfManagerStruct misf_smf_manager[8] = {0}; // жңҖеӨ§8гғҹгғғгӮ·гғ§гғіеҜҫеҝң
.................... 
.................... 
.................... // ___________________ functions ________________
.................... 
.................... // MISF/SMFз®ЎзҗҶй–ўж•°
.................... void init_misf_smf_manager(int8 mission_id, int32 misf_start, int32 misf_size, int32 smf_start, int32 smf_size);
.................... void update_misf_data(int8 mission_id, int32 data_size);
.................... void process_misf_to_smf_transfer(int8 mission_id);
.................... int32 get_uncopied_data_size(int8 mission_id);
.................... void mark_data_copied(int8 mission_id, int32 copied_size);
.................... int1 is_misf_full(int8 mission_id);
.................... //MisfSmfManagerStruct* get_misf_smf_manager(int8 mission_id);
.................... 
.................... void enqueue_flash_operation(FlashOperationStruct *data);
.................... 
.................... FlashOperationStruct *dequeue_flash_operation();
.................... 
.................... FlashOperationStruct *peek_flash_operation(void);
.................... 
.................... void remove_flash_operation(void);
.................... 
.................... int1 is_empty_flash_queue(void);
.................... 
.................... SmfAddressStruct get_smf_address_struct(MissionID mission_id);
.................... 
.................... // дҫҝеҲ©гҒӘй–ўж•°
.................... void enqueue_uncopied_data(int8 mission_id, SmfWriteMode write_mode);
.................... void enqueue_manual_data(int8 mission_id, int32 misf_addr, int32 size, SmfWriteMode write_mode);
.................... void enqueue_read_data(int32 smf_addr, int32 size);
.................... void enqueue_erase_data(int32 smf_addr, int32 size);
.................... 
.................... // зөұеҗҲз®ЎзҗҶеҜҫеҝңгҒ®дҫҝеҲ©гҒӘй–ўж•°
.................... void enqueue_auto_transfer(int8 mission_id);  // жңӘгӮігғ”гғјгғҮгғјгӮҝгҒ®иҮӘеӢ•и»ўйҖҒ
.................... void complete_transfer_and_update_counter(int8 mission_id, int32 transferred_size);  // и»ўйҖҒе®ҢдәҶгҒЁгӮ«гӮҰгғігӮҝжӣҙж–°
.................... 
.................... SmfWriteStruct get_smf_write_struct(MissionID mission_id);
.................... #endif   //SMF_QUEUE_H
.................... 
.................... #include "mmj_smf_memorymap.h"
.................... #ifndef SMF_MEMORY_MAP_H
.................... #define SMF_MEMORY_MAP_H
.................... 
.................... /*
....................  * Auto-generated Memory Map Header
....................  * Generated from: MMJ_ICD_021_IICD_06_Memory_map.xlsx
....................  * Generated at: 2025-07-27 20:54:05
....................  */
.................... 
.................... #ifndef PACKET_SIZE
.................... #define PACKET_SIZE 64
.................... #endif
.................... 
.................... typedef struct {
....................     unsigned int32 used_size;
....................     unsigned int8 loop_counter;
....................     unsigned int8 reserved[3];
.................... } partition_header_t;
.................... 
.................... // payloadгҒ«иӨҮж•°гҒ®partition_headerгӮ’дёҰгҒ№гӮӢ
.................... typedef union {
....................     unsigned int8 bytes[PACKET_SIZE];  // з”ҹгғҮгғјгӮҝгӮўгӮҜгӮ»гӮ№з”Ё
.................... 
....................     struct {
....................         union {
....................             struct {
....................                 partition_header_t piclog;
....................                 partition_header_t enviroment;
....................                 partition_header_t iv_head;
....................                 partition_header_t iv_data;
....................             }cigs;
.................... 
....................             struct {
....................                 partition_header_t piclog;
....................                 partition_header_t enviroment;
....................                 partition_header_t iv_head;
....................                 partition_header_t iv_data;
....................             } satolab;
....................             // гғ•гғ©гғғгғҲгҒ«гӮўгӮҜгӮ»гӮ№гҒ—гҒҹгҒ„гҒЁгҒҚз”Ё
....................             partition_header_t headers[(PACKET_SIZE - 1) / sizeof(partition_header_t)];
....................         } payload;
.................... 
....................         unsigned int8 crc;  // жңҖеҫҢгҒ®1гғҗгӮӨгғҲ
....................     };
.................... } smf_data_table_t;
.................... 
.................... // Base Memory Configuration
.................... #define SMF_SIZE 0x08000000 // 128MB
.................... #define SMF_START_ADDRESS 0x00000000
.................... #define SMF_END_ADDRESS   0x07FFFFFF
.................... 
.................... 
.................... // ===== Device IDs from гғЎгғўгғӘгғһгғғгғ—  =====
.................... #define MAIN_DEVICE_ID 0x10
.................... #define COM_DEVICE_ID 0x20
.................... #define APRS_DEVICE_ID 0x60
.................... #define CAM_DEVICE_ID 0x70
.................... #define CHO_DEVICE_ID 0x80
.................... #define SATO_DEVICE_ID 0x90
.................... #define BHU_DEVICE_ID 0xB0
.................... #define CIGS_DEVICE_ID 0xC0
.................... 
.................... // ===== Data IDs from гғЎгғўгғӘгғһгғғгғ—  =====
.................... #define ID_MAIN_ADDRESS_AREA 0x10
.................... #define ID_MAIN_ADDRESS 0x11
.................... #define ID_MAIN_RESERVED_COMMAND 0x12
.................... #define ID_MAIN_HK 0x14
.................... #define ID_MAIN_HSHK 0x15
.................... #define ID_MAIN_LSHK 0x16
.................... #define ID_MAIN_PIC_LOG 0x1F
.................... #define ID_COM_RSSI_TRX_T_LOG 0x20
.................... #define ID_COM_PIC_LOG 0x2F
.................... #define ID_APRS_PIC_DATA_TABLE 0x60
.................... #define ID_APRS_APRS 0x61
.................... #define ID_APRS_IN_VEHICLE_COMMUNICATION_MISSION 0x62
.................... #define ID_APRS_TLE_DATA 0x63
.................... #define ID_APRS_ECOSYSTEM 0x67
.................... #define ID_APRS_PIC_LOG 0x6F
.................... #define ID_CAM_CHIBANY_THUMBNAIL_IMAGE_DATA_SIZE 0x70
.................... #define ID_CAM_CHIBANY_IMAGE_DATA_SIZE 0x71
.................... #define ID_CAM_CHIBANY_VIDEO_SIZE 0x72
.................... #define ID_CAM_POLLEN_THUMBNAIL_IMAGE_DATA_SIZE 0x73
.................... #define ID_CAM_POLEN_IMAGE_DATA_SIZE 0x74
.................... #define ID_CAM_POLLEN_VIDEO_DATA_SIZE 0x75
.................... #define ID_CAM_MCU_LOG_DATA_SIZE 0x7F
.................... #define ID_CHO_GREECE_THUMBNAIL_IMAGE_DATA_SIZE 0x80
.................... #define ID_CHO_GREECE_IMAGE_DATA_SIZE 0x81
.................... #define ID_CHO_SENSOR_DATA_SIZE 0x82
.................... #define ID_CHO_MCU_LOG_DATA_SIZE 0x8F
.................... #define ID_SATO_PIC_DATA_TABLE 0x90
.................... #define ID_SATO_CYCLE_MODE_DATA 0x91
.................... #define ID_SATO_RANDOM_MODE_DATA 0x92
.................... #define ID_SATO_MULTIPLE_POINT_MODE_DATA 0x93
.................... #define ID_SATO_VOLTAGE_SWEEP_MODE_DATA 0x94
.................... #define ID_SATO_PIC_LOG 0x9F
.................... #define ID_BHU_FOREST_THUMBNAIL_IMAGE_DATA_SIZE 0xB0
.................... #define ID_BHU_FOREST_IMAGE_DATA_SIZE 0xB1
.................... #define ID_BHU_SENSOR_DATA_DATA_SIZE 0xB2
.................... #define ID_BHU_MCU_LOG_DATA_SIZE 0xBF
.................... #define ID_CIGS_DATA_TABLE 0xC0
.................... #define ID_CIGS_MEASURE_DATA 0xC1
.................... #define ID_CIGS_PICLOG 0xCF
.................... 
.................... // ===== Memory Address Mappings from гғЎгғўгғӘгғһгғғгғ—  =====
.................... #define MAIN_ADDRESS_AREA_START_ADDRESS 0x00000000
.................... #define MAIN_ADDRESS_AREA_END_ADDRESS 0x00000FFF
.................... #define MAIN_ADDRESS_START_ADDRESS 0x00001000
.................... #define MAIN_ADDRESS_END_ADDRESS 0x00001FFF
.................... #define MAIN_RESERVED_COMMAND_START_ADDRESS 0x00002000
.................... #define MAIN_RESERVED_COMMAND_END_ADDRESS 0x00003FFF
.................... #define MAIN_HK_START_ADDRESS 0x00004000
.................... #define MAIN_HK_END_ADDRESS 0x02003FFF
.................... #define MAIN_HSHK_START_ADDRESS 0x02004000
.................... #define MAIN_HSHK_END_ADDRESS 0x02103FFF
.................... #define MAIN_LSHK_START_ADDRESS 0x02104000
.................... #define MAIN_LSHK_END_ADDRESS 0x02303FFF
.................... #define MAIN_PIC_LOG_START_ADDRESS 0x02304000
.................... #define MAIN_PIC_LOG_END_ADDRESS 0x0240FFFF
.................... #define COM_RSSI_TRX_T_LOG_START_ADDRESS 0x02800000
.................... #define COM_RSSI_TRX_T_LOG_END_ADDRESS 0x028FFFFF
.................... #define COM_PIC_LOG_START_ADDRESS 0x02900000
.................... #define COM_PIC_LOG_END_ADDRESS 0x029FFFFF
.................... #define APRS_PIC_DATA_TABLE_START_ADDRESS 0x02C00000
.................... #define APRS_PIC_DATA_TABLE_END_ADDRESS 0x02C00FFF
.................... #define APRS_APRS_START_ADDRESS 0x02C01000
.................... #define APRS_APRS_END_ADDRESS 0x02D00FFF
.................... #define APRS_IN_VEHICLE_COMMUNICATION_MISSION_START_ADDRESS 0x02D01000
.................... #define APRS_IN_VEHICLE_COMMUNICATION_MISSION_END_ADDRESS 0x02D01FFF
.................... #define APRS_TLE_DATA_START_ADDRESS 0x02D02000
.................... #define APRS_TLE_DATA_END_ADDRESS 0x02D02FFF
.................... #define APRS_ECOSYSTEM_START_ADDRESS 0x02D03000
.................... #define APRS_ECOSYSTEM_END_ADDRESS 0x02E02FFF
.................... #define APRS_PIC_LOG_START_ADDRESS 0x02E03000
.................... #define APRS_PIC_LOG_END_ADDRESS 0x02E03FFF
.................... #define CAM_CHIBANY_THUMBNAIL_IMAGE_DATA_SIZE_START_ADDRESS 0x02F10000
.................... #define CAM_CHIBANY_THUMBNAIL_IMAGE_DATA_SIZE_END_ADDRESS 0x02F10FFF
.................... #define CAM_CHIBANY_IMAGE_DATA_SIZE_START_ADDRESS 0x03311000
.................... #define CAM_CHIBANY_IMAGE_DATA_SIZE_END_ADDRESS 0x03311FFF
.................... #define CAM_CHIBANY_VIDEO_SIZE_START_ADDRESS 0x03712000
.................... #define CAM_CHIBANY_VIDEO_SIZE_END_ADDRESS 0x03712FFF
.................... #define CAM_POLLEN_THUMBNAIL_IMAGE_DATA_SIZE_START_ADDRESS 0x03B13000
.................... #define CAM_POLLEN_THUMBNAIL_IMAGE_DATA_SIZE_END_ADDRESS 0x03B13FFF
.................... #define CAM_POLEN_IMAGE_DATA_SIZE_START_ADDRESS 0x03F14000
.................... #define CAM_POLEN_IMAGE_DATA_SIZE_END_ADDRESS 0x03F14FFF
.................... #define CAM_POLLEN_VIDEO_DATA_SIZE_START_ADDRESS 0x04315000
.................... #define CAM_POLLEN_VIDEO_DATA_SIZE_END_ADDRESS 0x04315FFF
.................... #define CAM_MCU_LOG_DATA_SIZE_START_ADDRESS 0x04320000
.................... #define CAM_MCU_LOG_DATA_SIZE_END_ADDRESS 0x04320FFF
.................... #define CHO_GREECE_THUMBNAIL_IMAGE_DATA_SIZE_START_ADDRESS 0x04440000
.................... #define CHO_GREECE_THUMBNAIL_IMAGE_DATA_SIZE_END_ADDRESS 0x04440FFF
.................... #define CHO_GREECE_IMAGE_DATA_SIZE_START_ADDRESS 0x04451000
.................... #define CHO_GREECE_IMAGE_DATA_SIZE_END_ADDRESS 0x04451FFF
.................... #define CHO_SENSOR_DATA_SIZE_START_ADDRESS 0x04852000
.................... #define CHO_SENSOR_DATA_SIZE_END_ADDRESS 0x04852FFF
.................... #define CHO_MCU_LOG_DATA_SIZE_START_ADDRESS 0x04863000
.................... #define CHO_MCU_LOG_DATA_SIZE_END_ADDRESS 0x04863FFF
.................... #define SATO_PIC_DATA_TABLE_START_ADDRESS 0x04980000
.................... #define SATO_PIC_DATA_TABLE_END_ADDRESS 0x04980FFF
.................... #define SATO_CYCLE_MODE_DATA_START_ADDRESS 0x04981000
.................... #define SATO_CYCLE_MODE_DATA_END_ADDRESS 0x04A80FFF
.................... #define SATO_RANDOM_MODE_DATA_START_ADDRESS 0x04A81000
.................... #define SATO_RANDOM_MODE_DATA_END_ADDRESS 0x04E80FFF
.................... #define SATO_MULTIPLE_POINT_MODE_DATA_START_ADDRESS 0x04E81000
.................... #define SATO_MULTIPLE_POINT_MODE_DATA_END_ADDRESS 0x04F80FFF
.................... #define SATO_VOLTAGE_SWEEP_MODE_DATA_START_ADDRESS 0x04F81000
.................... #define SATO_VOLTAGE_SWEEP_MODE_DATA_END_ADDRESS 0x05080FFF
.................... #define SATO_PIC_LOG_START_ADDRESS 0x05081000
.................... #define SATO_PIC_LOG_END_ADDRESS 0x05081FFF
.................... #define BHU_FOREST_THUMBNAIL_IMAGE_DATA_SIZE_START_ADDRESS 0x05190000
.................... #define BHU_FOREST_THUMBNAIL_IMAGE_DATA_SIZE_END_ADDRESS 0x05190FFF
.................... #define BHU_FOREST_IMAGE_DATA_SIZE_START_ADDRESS 0x05591000
.................... #define BHU_FOREST_IMAGE_DATA_SIZE_END_ADDRESS 0x05591FFF
.................... #define BHU_SENSOR_DATA_DATA_SIZE_START_ADDRESS 0x05992000
.................... #define BHU_SENSOR_DATA_DATA_SIZE_END_ADDRESS 0x05992FFF
.................... #define BHU_MCU_LOG_DATA_SIZE_START_ADDRESS 0x06993000
.................... #define BHU_MCU_LOG_DATA_SIZE_END_ADDRESS 0x06993FFF
.................... #define CIGS_DATA_TABLE_START_ADDRESS 0x06AA0000
.................... #define CIGS_DATA_TABLE_END_ADDRESS 0x06AA0FFF
.................... #define CIGS_PICLOG_START_ADDRESS 0x06AA1000
.................... #define CIGS_PICLOG_END_ADDRESS 0x06AA1FFF
.................... #define CIGS_ENVIRO_START_ADDRESS 0x06AA2000
.................... #define CIGS_ENVIRO_END_ADDRESS 0x06AA2FFF
.................... #define CIGS_IV1_HEADER_START_ADDRESS 0x06B42000
.................... #define CIGS_IV1_HEADER_END_ADDRESS 0x06BE1FFF
.................... #define CIGS_IV1_DATA_START_ADDRESS 0x06BE2000
.................... #define CIGS_IV1_DATA_END_ADDRESS 0x06FE2FFF
.................... #define CIGS_IV2_HEADER_START_ADDRESS 0x06FE3000
.................... #define CIGS_IV2_HEADER_END_ADDRESS 0x07082FFF
.................... #define CIGS_IV2_DATA_START_ADDRESS 0x07083000
.................... #define CIGS_IV2_DATA_END_ADDRESS 0x07483FFF
.................... 
.................... #endif // SMF_MEMORY_MAP_H
.................... 
.................... 
.................... 
.................... void enqueue_flash_operation(FlashOperationStruct *data)
.................... {   
....................    fprintf(PC, "Enqueue Flash Operation\r\n");
....................    int8 next_tail = (flash_queue.tail_index + 1) % SMF_QUEUE_SIZE;
.................... 
....................    if(next_tail == flash_queue.head_index)
....................       printf("Flash queue is full!!!\r\n");
....................       
....................    else
....................    {
....................       flash_queue.entries[flash_queue.tail_index].mission_id = data->mission_id;
....................       flash_queue.entries[flash_queue.tail_index].func_type  = data->func_type;
....................       flash_queue.entries[flash_queue.tail_index].write_mode = data->write_mode;
....................       flash_queue.entries[flash_queue.tail_index].source_type = data->source_type;
....................       flash_queue.entries[flash_queue.tail_index].misf_start_addr = data->misf_start_addr;
....................       flash_queue.entries[flash_queue.tail_index].misf_size = data->misf_size;
....................       flash_queue.tail_index = next_tail;
....................    }
.................... 
.................... 
.................... }
.................... 
.................... 
.................... FlashOperationStruct *dequeue_flash_operation()
.................... {
....................    if (flash_queue.head_index == flash_queue.tail_index)
....................    {
....................       printf("Flash queue is empty\r\n");
....................       return 0x00;
....................    }
....................    else
....................    {
....................       int8 current_head = flash_queue.head_index;
....................       flash_queue.head_index = (flash_queue.head_index + 1) % SMF_QUEUE_SIZE;
.................... 
.................... 
....................       return &flash_queue.entries[current_head];
....................    }
.................... }
.................... 
.................... int1 is_empty_flash_queue(void)
.................... {
....................    return flash_queue.head_index == flash_queue.tail_index;
.................... }
.................... 
.................... 
.................... SmfAddressStruct get_smf_address_struct(MissionID mission_id)
.................... {
....................    SmfAddressStruct mis_struct = {0};
.................... 
....................    if (mission_id == CIGS_DATA_TABLE)
....................    {
....................       mis_struct.start_address = CIGS_DATA_TABLE_START_ADDRESS;
....................       mis_struct.end_address   = CIGS_DATA_TABLE_END_ADDRESS;
....................    }
....................    else if (mission_id == CIGS_PICLOG_DATA)
....................    {
....................       mis_struct.start_address = CIGS_PICLOG_START_ADDRESS;
....................       mis_struct.end_address   = CIGS_PICLOG_END_ADDRESS;
....................    }
....................    else if (mission_id == CIGS_ENVIRO_DATA)
....................    {
....................       mis_struct.start_address = CIGS_PICLOG_START_ADDRESS;
....................       mis_struct.end_address   = CIGS_PICLOG_END_ADDRESS;
....................    }
....................    else if (mission_id == CIGS_IV_HEADER)
....................    {
....................       mis_struct.start_address = CIGS_IV1_HEADER_START_ADDRESS;
....................       mis_struct.end_address   = CIGS_IV1_HEADER_END_ADDRESS;
....................    }
....................    else if (mission_id == CIGS_IV_DATA)
....................    {
....................       mis_struct.start_address = CIGS_IV1_DATA_START_ADDRESS;
....................       mis_struct.end_address   = CIGS_IV1_DATA_END_ADDRESS;
....................    }
....................    return mis_struct;
.................... }
.................... // End of file
.................... 
.................... #include "../../lib/communication/communication.c"
.................... // #include "communication.h"  // гғҳгғғгғҖгғјгғ•гӮЎгӮӨгғ«гҒӢгӮүиҮӘеӢ•зҡ„гҒ«гӮӨгғігӮҜгғ«гғјгғүгҒ•гӮҢгӮӢгҒҹгӮҒдёҚиҰҒ
.................... #include "mission_tools.h"
.................... #ifndef MISSION_TOOLS_H
.................... #define MISSION_TOOLS_H
.................... 
.................... #include "communication_driver.h"
.................... 
.................... 
.................... // ________________ fuctions ____________
.................... 
.................... // Check and reply to messages received from BOSS PIC
.................... void check_and_respond_to_boss();
.................... 
.................... // Request using SMF to BOSS PIC
.................... // !!!After use, you must call `void finished_use_smf()`
.................... int1 req_use_smf();
.................... 
.................... // Call after using SMF
.................... void finished_use_smf();
.................... //unsigned int8 calc_crc8(unsigned int8 frame[], int8 payload_size);
.................... 
.................... 
.................... #endif
.................... 
.................... 
.................... #include "../tool/calc_tools.h"
.................... #ifndef CALC_TOOLS_H
.................... #define CALC_TOOLS_H
....................  
.................... unsigned int8 calc_crc8(unsigned int8 *frame, unsigned int8 payload_size);
.................... int1 is_crc_valid(unsigned int8 *frame, int8 payload_size);
.................... void int32_to_be_array(int32 value, int8 *buf, int8 index);
.................... int32 lsb_array_to_int32(int8 *buf, int8 index);
.................... unsigned int32 lsb_to_msb(unsigned int32 value);
.................... unsigned int32 msb_to_lsb(unsigned int32 value);
.................... 
.................... 
.................... #endif // CALC_TOOLS_H  
.................... 
.................... 
.................... Command make_receive_command(unsigned int8 receive_signal[], int8 receive_signal_size)
.................... {
....................    Command command = {0, 0, FALSE,{0x00}};
*
02436:  MOVLB  1
02438:  CLRF   x65
0243A:  CLRF   x66
0243C:  CLRF   x67
0243E:  CLRF   x68
02440:  CLRF   x69
02442:  CLRF   x6A
02444:  CLRF   x6B
02446:  CLRF   x6C
02448:  CLRF   x6D
0244A:  CLRF   x6E
0244C:  CLRF   x6F
0244E:  CLRF   x70
....................    fprintf(PC, "\r\nStart make_receive_command\r\n");
02450:  MOVLW  9A
02452:  MOVWF  FF6
02454:  MOVLW  01
02456:  MOVWF  FF7
02458:  MOVLW  00
0245A:  MOVWF  FF8
0245C:  MOVLB  0
0245E:  CALL   0A16
....................    fprintf(PC, "\t[BOSS] >>> ");
02462:  MOVLW  BA
02464:  MOVWF  FF6
02466:  MOVLW  01
02468:  MOVWF  FF7
0246A:  MOVLW  00
0246C:  MOVWF  FF8
0246E:  CALL   0A16
....................    for (int8 i = 0; i < receive_signal_size; i++)
02472:  MOVLB  1
02474:  CLRF   x71
02476:  MOVLB  0
02478:  MOVLB  1
0247A:  MOVF   x64,W
0247C:  SUBWF  x71,W
0247E:  BTFSS  FD8.0
02480:  BRA    2488
02482:  MOVLB  0
02484:  GOTO   24C0
02488:  MOVLB  0
....................       fprintf(PC, "%X ", receive_signal[i]);
0248A:  MOVLB  1
0248C:  MOVF   x71,W
0248E:  ADDWF  x62,W
02490:  MOVWF  FE9
02492:  MOVLW  00
02494:  ADDWFC x63,W
02496:  MOVWF  FEA
02498:  MOVFF  FEF,178
0249C:  MOVFF  178,17D
024A0:  MOVLW  37
024A2:  MOVWF  x7E
024A4:  MOVLB  0
024A6:  CALL   1394
024AA:  MOVLW  20
024AC:  MOVLB  2
024AE:  MOVWF  x08
024B0:  MOVLB  0
024B2:  CALL   09C4
024B6:  MOVLB  1
024B8:  INCF   x71,F
024BA:  MOVLB  0
024BC:  GOTO   2478
....................    fprintf(PC, "\r\n");
024C0:  MOVLW  0D
024C2:  MOVLB  2
024C4:  MOVWF  x08
024C6:  MOVLB  0
024C8:  CALL   09C4
024CC:  MOVLW  0A
024CE:  MOVLB  2
024D0:  MOVWF  x08
024D2:  MOVLB  0
024D4:  CALL   09C4
.................... 
....................    int8 frame_start_position = trim_receive_signal_header(receive_signal, receive_signal_size);
024D8:  MOVFF  163,179
024DC:  MOVFF  162,178
024E0:  MOVFF  164,17A
024E4:  GOTO   212E
024E8:  MOVFF  01,172
....................    if (frame_start_position == -1)
024EC:  MOVLB  1
024EE:  MOVF   x72,W
024F0:  SUBLW  FF
024F2:  BTFSC  FD8.2
024F4:  BRA    24FC
024F6:  MOVLB  0
024F8:  GOTO   250A
024FC:  MOVLB  0
....................       return command;
024FE:  MOVLW  65
02500:  MOVWF  01
02502:  MOVLW  01
02504:  MOVWF  02
02506:  GOTO   262C
....................       
....................    unsigned int8 *frame = &receive_signal[frame_start_position];
....................    
....................    int8 frame_id = frame[0] & 0x0F;
....................    int8 content_size = get_content_size(frame_id);
0250A:  MOVLB  1
0250C:  MOVF   x72,W
0250E:  ADDWF  x62,W
02510:  MOVWF  01
02512:  MOVLW  00
02514:  ADDWFC x63,W
02516:  MOVWF  03
02518:  MOVF   01,W
0251A:  MOVWF  x73
0251C:  MOVFF  03,174
02520:  MOVF   x73,W
02522:  MOVWF  FE9
02524:  MOVF   x74,W
02526:  MOVWF  FEA
02528:  MOVF   FEF,W
0252A:  ANDLW  0F
0252C:  MOVWF  x75
0252E:  MOVFF  175,178
02532:  MOVLB  0
02534:  GOTO   21D6
02538:  MOVFF  01,176
....................    if (content_size == -1)
0253C:  MOVLB  1
0253E:  MOVF   x76,W
02540:  SUBLW  FF
02542:  BTFSC  FD8.2
02544:  BRA    254C
02546:  MOVLB  0
02548:  GOTO   255A
0254C:  MOVLB  0
....................       return command;
0254E:  MOVLW  65
02550:  MOVWF  01
02552:  MOVLW  01
02554:  MOVWF  02
02556:  GOTO   262C
....................       
....................    unsigned int8 receive_frame_size = receive_signal_size - frame_start_position;
0255A:  MOVLB  1
0255C:  MOVF   x72,W
0255E:  SUBWF  x64,W
02560:  MOVWF  x77
....................    
....................    if (!check_crc(frame, receive_frame_size))
02562:  MOVFF  174,179
02566:  MOVFF  173,178
0256A:  MOVFF  177,17A
0256E:  MOVLB  0
02570:  GOTO   2292
02574:  MOVF   01,F
02576:  BTFSS  FD8.2
02578:  GOTO   2588
....................       return command;
0257C:  MOVLW  65
0257E:  MOVWF  01
02580:  MOVLW  01
02582:  MOVWF  02
02584:  GOTO   262C
....................    
....................    if(!check_device_id((frame[0] & 0xF0) >> 4))
02588:  MOVLB  1
0258A:  MOVF   x73,W
0258C:  MOVWF  FE9
0258E:  MOVF   x74,W
02590:  MOVWF  FEA
02592:  MOVF   FEF,W
02594:  ANDLW  F0
02596:  MOVWF  00
02598:  SWAPF  00,W
0259A:  MOVWF  x78
0259C:  MOVLW  0F
0259E:  ANDWF  x78,F
025A0:  MOVFF  178,179
025A4:  MOVLB  0
025A6:  GOTO   237C
025AA:  MOVF   01,F
025AC:  BTFSS  FD8.2
025AE:  GOTO   25BE
....................       return command;
025B2:  MOVLW  65
025B4:  MOVWF  01
025B6:  MOVLW  01
025B8:  MOVWF  02
025BA:  GOTO   262C
.................... 
....................    command.frame_id = frame_id;
025BE:  MOVFF  175,165
....................    memcpy(command.content, &frame[1], receive_frame_size-2); // '2' is for Decive ID, Frame ID and CRC
025C2:  MOVLW  01
025C4:  MOVLB  1
025C6:  ADDWF  x73,W
025C8:  MOVWF  01
025CA:  MOVLW  00
025CC:  ADDWFC x74,W
025CE:  MOVWF  03
025D0:  MOVF   01,W
025D2:  MOVWF  x78
025D4:  MOVFF  03,179
025D8:  MOVLW  02
025DA:  SUBWF  x77,W
025DC:  MOVWF  x7A
025DE:  MOVLW  01
025E0:  MOVWF  FEA
025E2:  MOVLW  68
025E4:  MOVWF  FE9
025E6:  MOVFF  179,FE2
025EA:  MOVFF  178,FE1
025EE:  MOVF   x7A,W
025F0:  MOVWF  01
025F2:  BTFSS  FD8.2
025F4:  BRA    25FC
025F6:  MOVLB  0
025F8:  GOTO   2608
025FC:  MOVLB  0
025FE:  MOVFF  FE6,FEE
02602:  DECFSZ 01,F
02604:  GOTO   25FE
....................    command.size = receive_frame_size-2;
02608:  MOVLW  02
0260A:  MOVLB  1
0260C:  SUBWF  x77,W
0260E:  MOVWF  x66
....................    command.is_exist = TRUE;
02610:  BSF    x67.0
....................    //fprintf(PC, "\t-> Frame ID: %X\r\n", command.frame_id);
....................    //fprintf(PC, "\t-> Content size: %d\r\n", command.size);
....................    //fprintf(PC, "\t-> is_exist: %d\r\n", command.is_exist);
....................    fprintf(PC, "End make_recive_command\r\n\r\n");
02612:  MOVLW  C8
02614:  MOVWF  FF6
02616:  MOVLW  01
02618:  MOVWF  FF7
0261A:  MOVLW  00
0261C:  MOVWF  FF8
0261E:  MOVLB  0
02620:  CALL   0A16
....................    return command;
02624:  MOVLW  65
02626:  MOVWF  01
02628:  MOVLW  01
0262A:  MOVWF  02
0262C:  GOTO   3BF4 (RETURN)
.................... }
.................... 
.................... static int8 trim_receive_signal_header(unsigned int8 receive_signal[], int8 receive_signal_size)
*
0212E:  MOVLB  1
02130:  CLRF   x7B
.................... {
....................    int8 i = 0;
....................    for(i = 0; i < receive_signal_size-1; i++) // if SFD find 
02132:  CLRF   x7B
02134:  MOVLB  0
02136:  MOVLW  01
02138:  MOVLB  1
0213A:  SUBWF  x7A,W
0213C:  SUBWF  x7B,W
0213E:  BTFSS  FD8.0
02140:  BRA    2148
02142:  MOVLB  0
02144:  GOTO   2180
02148:  MOVLB  0
....................       if(receive_signal[i] == SFD)
0214A:  MOVLB  1
0214C:  MOVF   x7B,W
0214E:  ADDWF  x78,W
02150:  MOVWF  FE9
02152:  MOVLW  00
02154:  ADDWFC x79,W
02156:  MOVWF  FEA
02158:  MOVF   FEF,W
0215A:  SUBLW  AA
0215C:  BTFSC  FD8.2
0215E:  BRA    2166
02160:  MOVLB  0
02162:  GOTO   2176
02166:  MOVLB  0
....................          return i+1;
02168:  MOVLW  01
0216A:  MOVLB  1
0216C:  ADDWF  x7B,W
0216E:  MOVWF  01
02170:  MOVLB  0
02172:  GOTO   21D2
02176:  MOVLB  1
02178:  INCF   x7B,F
0217A:  MOVLB  0
0217C:  GOTO   2136
....................    if (receive_signal[i] == SFD)
02180:  MOVLB  1
02182:  MOVF   x7B,W
02184:  ADDWF  x78,W
02186:  MOVWF  FE9
02188:  MOVLW  00
0218A:  ADDWFC x79,W
0218C:  MOVWF  FEA
0218E:  MOVF   FEF,W
02190:  SUBLW  AA
02192:  BTFSC  FD8.2
02194:  BRA    219C
02196:  MOVLB  0
02198:  GOTO   21BA
0219C:  MOVLB  0
....................    {
....................       fprintf(PC, "signal end with SFD\r\n");
0219E:  MOVLW  E4
021A0:  MOVWF  FF6
021A2:  MOVLW  01
021A4:  MOVWF  FF7
021A6:  MOVLW  00
021A8:  MOVWF  FF8
021AA:  CALL   0A16
....................       return -1;
021AE:  MOVLW  FF
021B0:  MOVWF  01
021B2:  GOTO   21D2
....................    }
021B6:  GOTO   21D2
....................    else
....................    {
....................       fprintf(PC, "don't find SFD\r\n");
021BA:  MOVLW  FA
021BC:  MOVWF  FF6
021BE:  MOVLW  01
021C0:  MOVWF  FF7
021C2:  MOVLW  00
021C4:  MOVWF  FF8
021C6:  CALL   0A16
....................       return -1;
021CA:  MOVLW  FF
021CC:  MOVWF  01
021CE:  GOTO   21D2
....................    }
021D2:  GOTO   24E8 (RETURN)
....................    
.................... }
.................... 
.................... static int8 get_content_size(unsigned int8 frame_id)
.................... {
....................    for (int i = 0; i < (sizeof(frame_ids) / sizeof(frame_ids[0])); i++)
021D6:  MOVLB  1
021D8:  CLRF   x79
021DA:  MOVLB  0
021DC:  MOVLB  1
021DE:  MOVF   x79,W
021E0:  SUBLW  02
021E2:  BTFSC  FD8.0
021E4:  BRA    21EC
021E6:  MOVLB  0
021E8:  GOTO   224A
021EC:  MOVLB  0
....................       if (frame_id == frame_ids[i].id)
021EE:  BCF    FD8.0
021F0:  MOVLB  1
021F2:  RLCF   x79,W
021F4:  CLRF   x7B
021F6:  MOVWF  x7A
021F8:  MOVLW  0C
021FA:  ADDWF  x7A,W
021FC:  MOVWF  FE9
021FE:  MOVLW  01
02200:  ADDWFC x7B,W
02202:  MOVWF  FEA
02204:  MOVF   FEF,W
02206:  SUBWF  x78,W
02208:  BTFSC  FD8.2
0220A:  BRA    2212
0220C:  MOVLB  0
0220E:  GOTO   2240
02212:  MOVLB  0
....................          return frame_ids[i].length;
02214:  BCF    FD8.0
02216:  MOVLB  1
02218:  RLCF   x79,W
0221A:  CLRF   x7B
0221C:  MOVWF  x7A
0221E:  MOVLW  01
02220:  ADDWF  x7A,W
02222:  MOVWF  01
02224:  MOVLW  00
02226:  ADDWFC x7B,W
02228:  MOVWF  03
0222A:  MOVF   01,W
0222C:  ADDLW  0C
0222E:  MOVWF  FE9
02230:  MOVLW  01
02232:  ADDWFC 03,W
02234:  MOVWF  FEA
02236:  MOVF   FEF,W
02238:  MOVWF  01
0223A:  MOVLB  0
0223C:  GOTO   228E
02240:  MOVLB  1
02242:  INCF   x79,F
02244:  MOVLB  0
02246:  GOTO   21DC
....................          
....................    fprintf(PC, "\t-> Invalid Frame ID received: %X\r\n", frame_id);
0224A:  MOVLW  0C
0224C:  MOVWF  FF6
0224E:  MOVLW  02
02250:  MOVWF  FF7
02252:  MOVLW  00
02254:  MOVWF  FF8
02256:  MOVLW  1F
02258:  MOVLB  2
0225A:  MOVWF  x04
0225C:  MOVLB  0
0225E:  CALL   0A46
02262:  MOVFF  178,17D
02266:  MOVLW  37
02268:  MOVLB  1
0226A:  MOVWF  x7E
0226C:  MOVLB  0
0226E:  CALL   1394
02272:  MOVLW  0D
02274:  MOVLB  2
02276:  MOVWF  x08
02278:  MOVLB  0
0227A:  CALL   09C4
0227E:  MOVLW  0A
02280:  MOVLB  2
02282:  MOVWF  x08
02284:  MOVLB  0
02286:  CALL   09C4
....................    return -1;
0228A:  MOVLW  FF
0228C:  MOVWF  01
0228E:  GOTO   2538 (RETURN)
.................... }
.................... 
.................... static int1 check_crc(unsigned int8 frame[], int8 receive_frame_size)
02292:  MOVLW  01
02294:  MOVLB  1
02296:  SUBWF  x7A,W
02298:  ADDWF  x78,W
0229A:  MOVWF  FE9
0229C:  MOVLW  00
0229E:  ADDWFC x79,W
022A0:  MOVWF  FEA
022A2:  MOVFF  FEF,17B
022A6:  MOVLW  01
022A8:  SUBWF  x7A,W
022AA:  MOVWF  x7D
022AC:  MOVFF  179,23B
022B0:  MOVFF  178,23A
022B4:  MOVFF  17D,23C
022B8:  MOVLB  0
022BA:  CALL   1A94
022BE:  MOVFF  01,17C
.................... {
....................    unsigned int8 received_crc = frame[receive_frame_size-1]; // '1' is for crc
....................    unsigned int8 collect_crc = calc_crc8(frame, receive_frame_size-1);
....................    if (received_crc == collect_crc)
022C2:  MOVLB  1
022C4:  MOVF   x7C,W
022C6:  SUBWF  x7B,W
022C8:  BTFSC  FD8.2
022CA:  BRA    22D2
022CC:  MOVLB  0
022CE:  GOTO   22E0
022D2:  MOVLB  0
....................       return TRUE;
022D4:  MOVLW  01
022D6:  MOVWF  01
022D8:  GOTO   2378
022DC:  GOTO   2378
....................    else
....................    {
....................       fprintf(PC, "\t-> CRC error!\r\n");
022E0:  MOVLW  30
022E2:  MOVWF  FF6
022E4:  MOVLW  02
022E6:  MOVWF  FF7
022E8:  MOVLW  00
022EA:  MOVWF  FF8
022EC:  CALL   0A16
....................       fprintf(PC, "\t\t-> received CRC: %X\r\n", received_crc);
022F0:  MOVLW  42
022F2:  MOVWF  FF6
022F4:  MOVLW  02
022F6:  MOVWF  FF7
022F8:  MOVLW  00
022FA:  MOVWF  FF8
022FC:  MOVLW  13
022FE:  MOVLB  2
02300:  MOVWF  x04
02302:  MOVLB  0
02304:  CALL   0A46
02308:  MOVFF  17B,17D
0230C:  MOVLW  37
0230E:  MOVLB  1
02310:  MOVWF  x7E
02312:  MOVLB  0
02314:  CALL   1394
02318:  MOVLW  0D
0231A:  MOVLB  2
0231C:  MOVWF  x08
0231E:  MOVLB  0
02320:  CALL   09C4
02324:  MOVLW  0A
02326:  MOVLB  2
02328:  MOVWF  x08
0232A:  MOVLB  0
0232C:  CALL   09C4
....................       fprintf(PC, "\t\t   collect CRC : %X\r\n", collect_crc);
02330:  MOVLW  5A
02332:  MOVWF  FF6
02334:  MOVLW  02
02336:  MOVWF  FF7
02338:  MOVLW  00
0233A:  MOVWF  FF8
0233C:  MOVLW  13
0233E:  MOVLB  2
02340:  MOVWF  x04
02342:  MOVLB  0
02344:  CALL   0A46
02348:  MOVFF  17C,17D
0234C:  MOVLW  37
0234E:  MOVLB  1
02350:  MOVWF  x7E
02352:  MOVLB  0
02354:  CALL   1394
02358:  MOVLW  0D
0235A:  MOVLB  2
0235C:  MOVWF  x08
0235E:  MOVLB  0
02360:  CALL   09C4
02364:  MOVLW  0A
02366:  MOVLB  2
02368:  MOVWF  x08
0236A:  MOVLB  0
0236C:  CALL   09C4
....................       return FALSE;
02370:  MOVLW  00
02372:  MOVWF  01
02374:  GOTO   2378
....................    }
02378:  GOTO   2574 (RETURN)
.................... }
.................... 
.................... static int1 check_device_id(unsigned int8 device_id)
.................... {
....................    if (SELF_DEVICE_ID == device_id)
0237C:  MOVLB  1
0237E:  MOVF   x79,W
02380:  SUBLW  0C
02382:  BTFSC  FD8.2
02384:  BRA    238C
02386:  MOVLB  0
02388:  GOTO   239A
0238C:  MOVLB  0
....................       return TRUE;
0238E:  MOVLW  01
02390:  MOVWF  01
02392:  GOTO   2432
02396:  GOTO   2432
....................    else
....................    {
....................       fprintf(PC, "\t-> Invalid device ID received\r\n");
0239A:  MOVLW  72
0239C:  MOVWF  FF6
0239E:  MOVLW  02
023A0:  MOVWF  FF7
023A2:  MOVLW  00
023A4:  MOVWF  FF8
023A6:  CALL   0A16
....................       fprintf(PC, "\t\t-> received:     %X\r\n", device_id);
023AA:  MOVLW  94
023AC:  MOVWF  FF6
023AE:  MOVLW  02
023B0:  MOVWF  FF7
023B2:  MOVLW  00
023B4:  MOVWF  FF8
023B6:  MOVLW  13
023B8:  MOVLB  2
023BA:  MOVWF  x04
023BC:  MOVLB  0
023BE:  CALL   0A46
023C2:  MOVFF  179,17D
023C6:  MOVLW  37
023C8:  MOVLB  1
023CA:  MOVWF  x7E
023CC:  MOVLB  0
023CE:  CALL   1394
023D2:  MOVLW  0D
023D4:  MOVLB  2
023D6:  MOVWF  x08
023D8:  MOVLB  0
023DA:  CALL   09C4
023DE:  MOVLW  0A
023E0:  MOVLB  2
023E2:  MOVWF  x08
023E4:  MOVLB  0
023E6:  CALL   09C4
....................       fprintf(PC, "\t\t   My device ID: %X\r\n", SELF_DEVICE_ID);
023EA:  MOVLW  AC
023EC:  MOVWF  FF6
023EE:  MOVLW  02
023F0:  MOVWF  FF7
023F2:  MOVLW  00
023F4:  MOVWF  FF8
023F6:  MOVLW  13
023F8:  MOVLB  2
023FA:  MOVWF  x04
023FC:  MOVLB  0
023FE:  CALL   0A46
02402:  MOVLW  0C
02404:  MOVLB  1
02406:  MOVWF  x7D
02408:  MOVLW  37
0240A:  MOVWF  x7E
0240C:  MOVLB  0
0240E:  CALL   1394
02412:  MOVLW  0D
02414:  MOVLB  2
02416:  MOVWF  x08
02418:  MOVLB  0
0241A:  CALL   09C4
0241E:  MOVLW  0A
02420:  MOVLB  2
02422:  MOVWF  x08
02424:  MOVLB  0
02426:  CALL   09C4
....................       return FALSE;  
0242A:  MOVLW  00
0242C:  MOVWF  01
0242E:  GOTO   2432
....................    }
02432:  GOTO   25AA (RETURN)
.................... }
.................... 
.................... 
.................... // _______ Transmit _______
.................... 
.................... void transmit_command(TransmitFrameId frame_id, unsigned int8 content[], int8 size)
.................... {
....................    unsigned int8 data[16];
....................    data[0] = SFD;
*
0277A:  MOVLW  AA
0277C:  MOVLB  1
0277E:  MOVWF  x63
....................    data[1] = (BOSS_PIC << 4) | frame_id;
02780:  MOVF   x5F,W
02782:  IORLW  50
02784:  MOVWF  x64
....................    memcpy(&data[2], content, size);
02786:  MOVLW  01
02788:  MOVWF  FEA
0278A:  MOVLW  65
0278C:  MOVWF  FE9
0278E:  MOVFF  161,FE2
02792:  MOVFF  160,FE1
02796:  MOVF   x62,W
02798:  MOVWF  01
0279A:  BTFSS  FD8.2
0279C:  BRA    27A4
0279E:  MOVLB  0
027A0:  GOTO   27B0
027A4:  MOVLB  0
027A6:  MOVFF  FE6,FEE
027AA:  DECFSZ 01,F
027AC:  GOTO   27A6
....................    int8 payload_size = 2 + size; // '2' is for Device ID and Frame ID plus CRC
027B0:  MOVLW  02
027B2:  MOVLB  1
027B4:  ADDWF  x62,W
027B6:  MOVWF  x73
....................    data[payload_size] = calc_crc8(&data[1], payload_size-1); // '1' is for CRC
027B8:  CLRF   03
027BA:  MOVF   x73,W
027BC:  ADDLW  63
027BE:  MOVWF  01
027C0:  MOVLW  01
027C2:  ADDWFC 03,F
027C4:  MOVF   01,W
027C6:  MOVWF  x75
027C8:  MOVFF  03,176
027CC:  MOVLW  01
027CE:  SUBWF  x73,W
027D0:  MOVWF  x77
027D2:  MOVLW  01
027D4:  MOVLB  2
027D6:  MOVWF  x3B
027D8:  MOVLW  64
027DA:  MOVWF  x3A
027DC:  MOVFF  177,23C
027E0:  MOVLB  0
027E2:  CALL   1A94
027E6:  MOVFF  176,FEA
027EA:  MOVFF  175,FE9
027EE:  MOVFF  01,FEF
....................    int8 data_size = payload_size + 1; // '1' is for CRC
027F2:  MOVLW  01
027F4:  MOVLB  1
027F6:  ADDWF  x73,W
027F8:  MOVWF  x74
....................    
....................    transmit(data, data_size);
027FA:  MOVLW  01
027FC:  MOVWF  x76
027FE:  MOVLW  63
02800:  MOVWF  x75
02802:  MOVFF  174,177
02806:  MOVLB  0
02808:  GOTO   26C2
0280C:  GOTO   2822 (RETURN)
.................... }
.................... 
.................... static void transmit(unsigned int8 data[], int8 data_size)
.................... {
....................    for(int i = 0; i < data_size; i++)
*
026C2:  MOVLB  1
026C4:  CLRF   x78
026C6:  MOVLB  0
026C8:  MOVLB  1
026CA:  MOVF   x77,W
026CC:  SUBWF  x78,W
026CE:  BTFSS  FD8.0
026D0:  BRA    26D8
026D2:  MOVLB  0
026D4:  GOTO   2700
026D8:  MOVLB  0
....................       fputc(data[i], BOSS);
026DA:  MOVLB  1
026DC:  MOVF   x78,W
026DE:  ADDWF  x75,W
026E0:  MOVWF  FE9
026E2:  MOVLW  00
026E4:  ADDWFC x76,W
026E6:  MOVWF  FEA
026E8:  MOVFF  FEF,17A
026EC:  MOVFF  17A,17B
026F0:  MOVLB  0
026F2:  GOTO   266E
026F6:  MOVLB  1
026F8:  INCF   x78,F
026FA:  MOVLB  0
026FC:  GOTO   26C8
....................       
....................    fprintf(PC, "\t[BOSS] <<< ");
02700:  MOVLW  C4
02702:  MOVWF  FF6
02704:  MOVLW  02
02706:  MOVWF  FF7
02708:  MOVLW  00
0270A:  MOVWF  FF8
0270C:  CALL   0A16
....................    for(int i = 0; i < data_size; i++)
02710:  MOVLB  1
02712:  CLRF   x79
02714:  MOVLB  0
02716:  MOVLB  1
02718:  MOVF   x77,W
0271A:  SUBWF  x79,W
0271C:  BTFSS  FD8.0
0271E:  BRA    2726
02720:  MOVLB  0
02722:  GOTO   275E
02726:  MOVLB  0
....................       fprintf(PC, "%X ", data[i]);
02728:  MOVLB  1
0272A:  MOVF   x79,W
0272C:  ADDWF  x75,W
0272E:  MOVWF  FE9
02730:  MOVLW  00
02732:  ADDWFC x76,W
02734:  MOVWF  FEA
02736:  MOVFF  FEF,17A
0273A:  MOVFF  17A,17D
0273E:  MOVLW  37
02740:  MOVWF  x7E
02742:  MOVLB  0
02744:  CALL   1394
02748:  MOVLW  20
0274A:  MOVLB  2
0274C:  MOVWF  x08
0274E:  MOVLB  0
02750:  CALL   09C4
02754:  MOVLB  1
02756:  INCF   x79,F
02758:  MOVLB  0
0275A:  GOTO   2716
....................    fprintf(PC, "\r\n");
0275E:  MOVLW  0D
02760:  MOVLB  2
02762:  MOVWF  x08
02764:  MOVLB  0
02766:  CALL   09C4
0276A:  MOVLW  0A
0276C:  MOVLB  2
0276E:  MOVWF  x08
02770:  MOVLB  0
02772:  CALL   09C4
02776:  GOTO   280C (RETURN)
.................... }
.................... 
.................... #include "../../lib/communication/communication_driver.c"
.................... Command make_command(unsigned int8 receive_signal[], int8 receive_signal_size)
.................... {
....................    Command command = make_receive_command(receive_signal, receive_signal_size);
....................    return command;
.................... }
.................... 
.................... void transmit_ack()
.................... {
....................    transmit_command(ACK, 0, 0);
*
02810:  MOVLW  0F
02812:  MOVLB  1
02814:  MOVWF  x5F
02816:  CLRF   x61
02818:  CLRF   x60
0281A:  CLRF   x62
0281C:  MOVLB  0
0281E:  GOTO   277A
02822:  GOTO   3806 (RETURN)
.................... }
.................... 
.................... void transmit_status()
.................... {
....................    transmit_command(MIS_MCU_STATUS, &status, 4);
.................... }
.................... 
.................... 
.................... #include "../../lib/communication/mission_tools.c"
.................... int1 req_use_smf()
.................... {
....................    fprintf(PC, "Start SMF using reqest seaquence\r\n");
....................    status = SMF_USE_REQ;
....................    is_use_smf_req_in_mission = TRUE;
.................... 
....................    while (TRUE)
....................    {
....................       for (int16 i = 0; i < 1200; i++) // 10 min
....................       {
....................          if (boss_receive_buffer_size > 0)
....................          {
....................             Command command = make_receive_command(boss_receive_buffer, boss_receive_buffer_size);
....................             clear_receive_signal(boss_receive_buffer, &boss_receive_buffer_size);
....................             if (command.frame_id == STATUS_CHECK)
....................             {
....................                transmit_status();
....................                break;
....................             }
....................             else
....................             {
....................                fprintf(PC, "Error! Receiving command inconsistent with the design\r\n");
....................             }
....................          }
....................          delay_ms(500);
....................       }
.................... 
....................       for (int16 i = 0; i < 1200; i++) // 10 min
....................       {
....................          if (boss_receive_buffer_size > 0)
....................          {
....................             Command command = make_receive_command(boss_receive_buffer, boss_receive_buffer_size);
....................             clear_receive_signal(boss_receive_buffer, &boss_receive_buffer_size);
....................             if (command.frame_id == IS_SMF_AVAILABLE)
....................             {
....................                if (command.content[0] == ALLOW)
....................                {
....................                   fprintf(PC, "SMF use request allowed\r\n");
....................                   transmit_ack();
....................                   goto NEXT;
....................                }
....................                else
....................                {
....................                   fprintf(PC, "SMF use request denyed\r\n");
....................                   fprintf(PC, "Retry request to BOSS PIC\r\n");
....................                   transmit_ack();
....................                   break;
....................                }
....................             }
....................             else
....................             {
....................                fprintf(PC, "Error! Receiving command inconsistent with the design\r\n");
....................             }
....................          }
....................          delay_ms(500);
....................       }
....................    }
.................... 
.................... NEXT:
....................    is_use_smf_req_in_mission = FALSE;
....................    status = COPYING;
....................    return TRUE;
....................    fprintf(PC, "End SMF using reqest seaquence\r\n");
.................... }
.................... 
.................... 
.................... void finished_use_smf()
.................... {
....................    status = EXECUTING_MISSION;
.................... }
.................... 
.................... void check_and_respond_to_boss()
.................... {
....................    if (kbhit())
....................    {
....................       fgetc(BOSS);
....................       transmit_status();
....................    }
.................... }
.................... 
.................... 
.................... 
.................... // гӮігӮўж©ҹиғҪе®ҹиЈ…гғ•гӮЎгӮӨгғ«
.................... #include "../core/measurement/son_tmp_strain.c"
.................... #include "son_tmp_strain.h"
.................... #ifndef son_tmp_strain_H
.................... #define son_tmp_strain_H
.................... 
.................... #include <stdint.h>
.................... #include <stdbool.h>
.................... #include "../../system/son_tmp_config.h"
.................... 
.................... // ============================================================================
.................... // еӨ–йғЁе…¬й–Ӣй–ўж•°гғ—гғӯгғҲгӮҝгӮӨгғ—
.................... // ============================================================================
.................... 
.................... // гғҡгғӘгғ•гӮ§гғ©гғ«гҒ®еҲқжңҹеҢ– (гғ”гғігҒ®еҮәеҠӣиЁӯе®ҡгҒӘгҒ©)
.................... void io_init(void);
.................... 
.................... // гӮўгғҠгғӯгӮ°гӮ№гӮӨгғғгғҒгҒ®еҲҮгӮҠжӣҝгҒҲ (0гҖң3гғҒгғЈгғігғҚгғ«)
.................... void switch_channel(uint8_t ch);
.................... 
.................... // LTC2452гҒӢгӮү16bitгҒ®ADCеҖӨгӮ’иӘӯгҒҝеҸ–гӮӢ
.................... uint16_t read_adc_ltc2452(void);
.................... 
.................... // иЁҲжё¬гӮ·гғјгӮұгғігӮ№гҒ®е®ҹиЎҢгҒЁFlashгҒёгҒ®дҝқеӯҳ (IVгғҮгғјгӮҝ пјӢ жё©еәҰгғҮгғјгӮҝгӮ’йҖЈз¶ҡе®ҹиЎҢ)
.................... // mode: еӢ•дҪңгғўгғјгғү
.................... // channel: жё¬е®ҡгғҒгғЈгғігғҚгғ« (MAX4734EUB+ гҒ®йҒёжҠһ)
.................... // samplingRate: гӮөгғігғ—гғӘгғігӮ°гғ¬гғјгғҲиЁӯе®ҡеҖӨ
.................... void execute_measurement(uint8_t mode, uint8_t channel, uint8_t samplingRate);
.................... 
.................... #endif // son_tmp_strain_H
.................... 
.................... #include "son_tmp_temp.h" // жё©еәҰиЁҲжё¬гғўгӮёгғҘгғјгғ«гӮ’гӮӨгғігӮҜгғ«гғјгғү
.................... #ifndef son_tmp_TEMP_H
.................... #define son_tmp_TEMP_H
.................... 
.................... #include <stdint.h>
.................... #include <stdbool.h>
.................... #include "../../system/son_tmp_config.h"
.................... 
.................... // ============================================================================
.................... // жё©еәҰгғҮгғјгӮҝз”Ёгғ‘гӮұгғғгғҲж§ӢйҖ дҪ“ (64Byte)
.................... // ============================================================================
.................... typedef struct
.................... {
....................     uint8_t packetNum;       // гғ‘гӮұгғғгғҲз•ӘеҸ· (1 Byte)
....................     uint8_t tempData[62];    // жё©еәҰгғҮгғјгӮҝжң¬дҪ“ (62 Byte = 12bit x 41гғҮгғјгӮҝ)
....................     uint8_t crc8;            // CRC-8 (1 Byte)
.................... } TempPacket;
.................... 
.................... // гғЎгғўгғӘгғҗгғғгғ•гӮЎз”Ёе…ұз”ЁдҪ“
.................... typedef union
.................... {
....................     uint8_t raw[PACKET_SIZE];
....................     TempPacket temp;
.................... } TempPacketBuffer;
.................... 
.................... // ============================================================================
.................... // еӨ–йғЁе…¬й–Ӣй–ўж•°гғ—гғӯгғҲгӮҝгӮӨгғ—
.................... // ============================================================================
.................... 
.................... // еҶ…и”өADCгҒ®еҲқжңҹеҢ–
.................... void temp_io_init(void);
.................... 
.................... // еҶ…и”өADCгҒӢгӮүжё©еәҰгӮ»гғігӮөгғјгҒ®еҖӨгӮ’иӘӯгҒҝеҸ–гӮӢ (12bit)
.................... uint16_t read_adc_internal(void);
.................... 
.................... // жё©еәҰиЁҲжё¬гӮ·гғјгӮұгғігӮ№гҒ®е®ҹиЎҢгҒЁFlashгҒёгҒ®дҝқеӯҳ
.................... // startPacketNum: й–Ӣе§Ӣгғ‘гӮұгғғгғҲз•ӘеҸ· (19)
.................... // packetCount: е®ҹиЎҢгҒҷгӮӢгғ‘гӮұгғғгғҲж•° (14)
.................... void execute_temp_measurement(uint8_t startPacketNum, uint8_t packetCount);
.................... 
.................... #endif // son_tmp_TEMP_H
.................... 
.................... 
.................... // еҝ…иҰҒгҒӘеӨ–йғЁгғўгӮёгғҘгғјгғ«гҒ®гӮӨгғігӮҜгғ«гғјгғү
.................... #include "../../hardware/mcu/timer.h"
.................... #ifndef TIMER_H
.................... #define TIMER_H
.................... 
.................... #include <stdint.h>
.................... 
.................... // __________ values _________
.................... 
.................... // гғ‘гӮұгғғгғҲгғҳгғғгғҖгғјгҒ® timestamp гҒ§дҪҝз”ЁгҒҷгӮӢгҒҹгӮҒгҒ®з§’гӮ«гӮҰгғігӮҝ
.................... extern volatile uint32_t sec;
.................... 
.................... 
.................... // __________ functions _________
.................... uint32_t get_current_sec();
.................... void set_current_sec(uint32_t new_sec);
.................... void setup_timer();
.................... 
.................... #INT_TIMER1
.................... void TIMER1_isr();
.................... 
.................... #endif
.................... 
.................... #include "../storage/son_tmp_flash.h"
.................... #ifndef son_tmp_FLASH_H
.................... #define son_tmp_FLASH_H
.................... 
.................... #include <stdint.h>
.................... #include <string.h>
.................... #include "../../system/son_tmp_config.h"
.................... 
.................... // е…ұйҖҡгғ©гӮӨгғ–гғ©гғӘгҒ®гғҳгғғгғҖ (MissionIDгҒӘгҒ©гҒ®е®ҡж•°з”Ё)
.................... // #include "../../../lib/communication/typedef_content.h"
.................... // #include "../../../lib/communication/value_status.h"
.................... 
.................... // ============================================================================
.................... // гғЎгғўгғӘгғһгғғгғ—е®ҡзҫ© (MT25QL128ABA: 16MB)
.................... // ============================================================================
.................... #define MISF_START 0x00000000
.................... #define MISF_END   0x00FFFFFF
.................... 
.................... #define SECTOR_64K_BYTE  0x10000
.................... 
.................... #define MISF_CIGS_DATA_TABLE_SIZE 64
.................... 
.................... #define MISF_CIGS_DATA_TABLE_START 0x00000000
.................... #define MISF_CIGS_DATA_TABLE_END   0x00000FFF
.................... #define MISF_CIGS_PICLOG_START     0x00010000
.................... #define MISF_CIGS_PICLOG_END       0x00140FFF
.................... #define MISF_CIGS_ENVIRO_START     0x00281000
.................... #define MISF_CIGS_ENVIRO_END       0x00320FFF
.................... #define MISF_CIGS_IV_HEADER_START  0x00721000
.................... #define MISF_CIGS_IV_HEADER_END    0x007C0FFF
.................... #define MISF_CIGS_IV_DATA_START    0x007C1000
.................... #define MISF_CIGS_IV_DATA_END      0x00D00000
.................... 
.................... // ============================================================================
.................... // гғҮгғјгӮҝж§ӢйҖ дҪ“е®ҡзҫ©
.................... // ============================================================================
.................... 
.................... // гғ•гғ©гғғгӮ·гғҘгӮ«гӮҰгғігӮҝж§ӢйҖ дҪ“ (11 Bytes)
.................... typedef struct
.................... {
....................     uint8_t   mission_id;
....................     uint32_t  used_counter;
....................     uint32_t  uncopied_counter;
....................     uint8_t   reserve_counter1;
....................     uint8_t   reserve_counter2;
.................... } Flash_t;
.................... 
.................... // гғҶгғјгғ–гғ«дҝқеӯҳз”ЁгҒ®64Byteгғ‘гӮұгғғгғҲж§ӢйҖ дҪ“
.................... typedef union
.................... {
....................     struct
....................     {
....................         union
....................         {
....................             struct
....................             {
....................                 Flash_t piclog;
....................                 Flash_t environment;
....................                 Flash_t iv_header;
....................                 Flash_t iv_data;
....................             } logdata;
....................             uint8_t reserve[63];
....................         } payload;
....................         uint8_t crc; // 1гғҗгӮӨгғҲгҒ®CRC
....................     } packet;
....................     uint8_t bytes[64];
.................... } FlashData_t;
.................... 
.................... typedef struct
.................... {
....................     uint32_t start_address;
....................     uint32_t end_address;
.................... } MisfStatusStruct;
.................... 
.................... typedef struct
.................... {
....................     uint32_t start_address;
....................     uint32_t size;
.................... } MisfWriteStruct;
.................... 
.................... // ============================================================================
.................... // гӮ°гғӯгғјгғҗгғ«еӨүж•° (е®ЈиЁҖгҒ®гҒҝгҖҒе®ҹдҪ“гҒҜ.cгғ•гӮЎгӮӨгғ«гҒ«иЁҳиҝ°)
.................... // ============================================================================
.................... extern Flash_t piclog_data;
.................... extern Flash_t environment_data;
.................... extern Flash_t iv_header;
.................... extern Flash_t iv_data;
.................... 
.................... // ============================================================================
.................... // еӨ–йғЁе…¬й–Ӣй–ўж•°гғ—гғӯгғҲгӮҝгӮӨгғ—
.................... // ============================================================================
.................... void misf_init(void);
.................... FlashData_t make_flash_data_table(void);
.................... void write_misf_address_area(void);
.................... MisfStatusStruct get_misf_status_struct(uint8_t mission_id);
.................... MisfWriteStruct get_misf_write_struct(uint8_t mission_id);
.................... void print_flash_status(void);
.................... 
.................... #endif // son_tmp_FLASH_H
.................... 
.................... #include "../../../lib/tool/calc_tools.h"
.................... #ifndef CALC_TOOLS_H
.................... #define CALC_TOOLS_H
....................  
.................... unsigned int8 calc_crc8(unsigned int8 *frame, unsigned int8 payload_size);
.................... int1 is_crc_valid(unsigned int8 *frame, int8 payload_size);
.................... void int32_to_be_array(int32 value, int8 *buf, int8 index);
.................... int32 lsb_array_to_int32(int8 *buf, int8 index);
.................... unsigned int32 lsb_to_msb(unsigned int32 value);
.................... unsigned int32 msb_to_lsb(unsigned int32 value);
.................... 
.................... 
.................... #endif // CALC_TOOLS_H  
.................... 
.................... #include "../../../lib/device/mt25q.h"
.................... #ifndef MT25Q_H
.................... #define MT25Q_H
.................... 
.................... // =========
.................... //#define MT25Q_DEBUG
.................... // =========
.................... 
.................... 
.................... #define FLASH_STREAM0 MIS_FM_STREAM     // <- Align the names to `config.h` Stream name
.................... #define FLASH_STREAM1 SMF_STREAM
.................... #define FLASH_STREAM2 SMF_STREAM // dont use
.................... #define FLASH_STREAM3 SMF_STREAM // dont use
.................... 
.................... typedef enum spi_stream{
....................     SPI_0,
....................     SPI_1,
....................     SPI_2,
....................     SPI_3,
.................... }SpiStreamId;
.................... 
.................... #define MT25QL128ABA 0x00     //Mission Flash
.................... #define MT25QL01GBBB 0x01     //SMF,CF
.................... typedef struct select_stream_to_flash{
....................     SpiStreamId spi_stream_id;
....................     unsigned int8 flash_model;
....................     int16 cs_pin;
.................... }Flash;
.................... 
.................... 
.................... Flash mis_fm = {SPI_0, MT25QL128ABA, MIS_FM_CS};
.................... Flash smf = {SPI_1, MT25QL01GBBB, SMF_CS};
.................... 
.................... 
.................... 
.................... // ===================== Function List =====================
.................... // Public Functions
.................... 
.................... int1 is_connect(Flash flash_stream);
.................... 
.................... void write_data_bytes(Flash flash_stream, unsigned int32 write_start_address, int8 *write_data, unsigned int16 write_amount);      
.................... 
.................... void read_data_bytes(Flash flash_stream, unsigned int32 read_start_address, int8 *read_data, unsigned int32 read_amount);  
.................... 
.................... void sector_erase(Flash flash_stream, unsigned int32 sector_address);
.................... 
.................... void subsector_32kByte_erase(Flash flash_stream, unsigned int32 subsector_address);  
....................                                
.................... void subsector_4kByte_erase(Flash flash_stream, unsigned int32 subsector_address);      
.................... 
.................... //Private Functions
....................  
.................... void flash_setting(Flash flash_stream);
....................  
.................... int8 status_register(Flash flash_stream);
....................  
.................... int8 read_id(Flash flash_stream);
....................  
.................... int8 read_data_byte(Flash flash_stream, unsigned int32 read_address);                                               
....................  
.................... void write_data_byte(Flash flash_stream, unsigned int32 write_address,int8 write_data);                             
....................         //
.................... 
.................... 
.................... // ===================== Flash Commands =====================
.................... #define CMD_READ_ID                     0x9F
.................... #define CMD_READ_STATUS_REGISTER        0x05
.................... #define CMD_READ                        0x03//for MT25QL128ABA
.................... #define CMD_4BYTE_READ                  0x13//for MT25QL01GBBB
.................... #define CMD_WRITE_ENABLE                0x06
.................... #define CMD_PAGE_PROGRAM                0x02//for MT25QL128ABA
.................... #define CMD_4BYTE_PAGE_PROGRAM          0x12//for MT25QL01GBBB
.................... #define CMD_SUBSECTOR_4KB_ERASE         0x20//for MT25QL128ABA
.................... #define CMD_4BYTE_SUBSECTOR_4KB_ERASE   0x21//for MT25QL01GBBB
.................... #define CMD_SUBSECTOR_32KB_ERASE        0x52//for MT25QL128ABA
.................... #define CMD_4BYTE_SUBSECTOR_32KB_ERASE  0x5C//for MT25QL01GBBB
.................... #define CMD_SECTOR_ERASE                0xD8//for MT25QL128ABA
.................... #define CMD_4BYTE_SECTOR_ERASE          0xDC//for MT25QL01GBBB
.................... 
.................... // ====================== Value List =====================
.................... #define MANUFACTURER_ID_MICRON 0x20 // Manufacturer ID for Micron flash
.................... #define READ_ID_DATASIZE 20 // 20 bytes for read ID data
.................... 
.................... 
.................... // ====================== Data Structures =====================
.................... typedef union
.................... {
....................     unsigned int8 bytes[READ_ID_DATASIZE]; // 20 bytes for read ID
....................     struct {
....................         unsigned int8 manufacturer_id; // 1 byte
....................         unsigned int8 memory_type;     // 1 byte
....................         unsigned int8 capacity;        // 1 byte
....................         unsigned int8 reserved;       // 1 byte
....................     } fields;
.................... }READ_ID_DATA;
.................... 
.................... 
.................... #endif
.................... 
.................... 
.................... 
.................... 
.................... // ============================================================================
.................... // гғҸгғјгғүгӮҰгӮ§гӮўгғ»гғҡгғӘгғ•гӮ§гғ©гғ«еҲ¶еҫЎ
.................... // ============================================================================
.................... 
.................... void io_init()
.................... {
....................     fprintf(PC, "IO Initialize\r\n");
*
00AC2:  MOVLW  D8
00AC4:  MOVWF  FF6
00AC6:  MOVLW  03
00AC8:  MOVWF  FF7
00ACA:  MOVLW  00
00ACC:  MOVWF  FF8
00ACE:  CALL   0A16
.................... 
....................     // SPI Chip Select гҒ®еҲқжңҹеҢ– (HighгҒ§йқһйҒёжҠһ)
....................     output_high(PIN_CS_ADC);
00AD2:  BCF    F93.3
00AD4:  BSF    F8A.3
....................     output_high(MIS_FM_CS);
00AD6:  BCF    F93.1
00AD8:  BSF    F8A.1
....................     output_high(SMF_CS);
00ADA:  BCF    F95.4
00ADC:  BSF    F8C.4
.................... 
....................     // йӣ»жәҗгғ»еҲ¶еҫЎгғ”гғігҒ®еҲқжңҹеҢ– (LowгҒ§OFF)
....................     output_low(PIN_LDO_EN);
00ADE:  BCF    F96.1
00AE0:  BCF    F8D.1
....................     output_low(PIN_VREF_EN);
00AE2:  BCF    F96.0
00AE4:  BCF    F8D.0
.................... 
....................     // гӮўгғҠгғӯгӮ°гӮ№гӮӨгғғгғҒгҒ®еҲқжңҹеҢ–
....................     output_low(PIN_SW_DIO0);
00AE6:  BCF    F94.2
00AE8:  BCF    F8B.2
....................     output_low(PIN_SW_DIO1);
00AEA:  BCF    F94.1
00AEC:  BCF    F8B.1
.................... 
....................     // гғҶгғ¬гғЎгғҲгғӘLEDгҒ®еҲқжңҹеҢ–
....................     output_low(PIN_LED1);
00AEE:  BCF    F92.5
00AF0:  BCF    F89.5
....................     output_low(PIN_LED2);
00AF2:  BCF    F92.1
00AF4:  BCF    F89.1
.................... 
....................     // еҶ…и”өADC(жё©еәҰгӮ»гғігӮөз”Ё)гҒ®еҲқжңҹеҢ–гӮӮгҒ“гҒ“гҒ§е‘јгҒіеҮәгҒҷ
....................     temp_io_init();
00AF6:  GOTO   0A7C
.................... 
....................     delay_ms(1);
00AFA:  MOVLW  01
00AFC:  MOVLB  2
00AFE:  MOVWF  x1C
00B00:  MOVLB  0
00B02:  CALL   0996
....................     fprintf(PC, "\tComplete\r\n");
00B06:  MOVLW  E8
00B08:  MOVWF  FF6
00B0A:  MOVLW  03
00B0C:  MOVWF  FF7
00B0E:  MOVLW  00
00B10:  MOVWF  FF8
00B12:  CALL   0A16
00B16:  GOTO   3B8E (RETURN)
.................... }
.................... 
.................... void switch_channel(uint8_t ch)
.................... {
....................     // MAX4734EUB+ гҒҜ 2bit (DIO1, DIO0) гҒ§ 4ch гӮ’еҲҮгӮҠжӣҝгҒҲгӮӢ
....................     if (ch & 0x01)
*
02918:  MOVLB  1
0291A:  BTFSC  xB4.0
0291C:  BRA    2924
0291E:  MOVLB  0
02920:  GOTO   292E
02924:  MOVLB  0
....................     {
....................         output_high(PIN_SW_DIO0);
02926:  BCF    F94.2
02928:  BSF    F8B.2
....................     }
0292A:  GOTO   2932
....................     else
....................     {
....................         output_low(PIN_SW_DIO0);
0292E:  BCF    F94.2
02930:  BCF    F8B.2
....................     }
.................... 
....................     if (ch & 0x02)
02932:  MOVLB  1
02934:  BTFSC  xB4.1
02936:  BRA    293E
02938:  MOVLB  0
0293A:  GOTO   2948
0293E:  MOVLB  0
....................     {
....................         output_high(PIN_SW_DIO1);
02940:  BCF    F94.1
02942:  BSF    F8B.1
....................     }
02944:  GOTO   294C
....................     else
....................     {
....................         output_low(PIN_SW_DIO1);
02948:  BCF    F94.1
0294A:  BCF    F8B.1
....................     }
.................... 
....................     // гӮ№гӮӨгғғгғҒеҲҮгӮҠжӣҝгҒҲеҫҢгҒ®е®үе®ҡеҫ…гҒЎ
....................     delay_us(10);
0294C:  MOVLW  0D
0294E:  MOVWF  00
02950:  DECFSZ 00,F
02952:  BRA    2950
02954:  GOTO   2D1C (RETURN)
.................... }
.................... 
.................... uint16_t read_adc_ltc2452()
02958:  MOVLB  1
0295A:  CLRF   xB5
0295C:  CLRF   xB4
.................... {
....................     uint16_t adc_val = 0;
.................... 
....................     output_low(PIN_CS_ADC);
0295E:  BCF    F93.3
02960:  BCF    F8A.3
.................... 
....................     // LTC2452гҒҜ16bitгғҮгғјгӮҝгӮ’еҮәеҠӣ (MSBгғ•гӮЎгғјгӮ№гғҲ)
....................     adc_val = spi_xfer(MIS_FM_STREAM, 0x00);                  // дёҠдҪҚ8bit
02962:  MOVLB  2
02964:  CLRF   x3E
02966:  MOVLW  08
02968:  MOVWF  x3F
0296A:  MOVLW  01
0296C:  MOVWF  x40
0296E:  MOVLB  0
02970:  CALL   0BDA
02974:  MOVLB  1
02976:  CLRF   xB5
02978:  MOVFF  01,1B4
....................     adc_val = (adc_val << 8) | spi_xfer(MIS_FM_STREAM, 0x00); // дёӢдҪҚ8bit
0297C:  MOVFF  1B4,1B7
02980:  CLRF   xB6
02982:  MOVLB  2
02984:  CLRF   x3E
02986:  MOVLW  08
02988:  MOVWF  x3F
0298A:  MOVLW  01
0298C:  MOVWF  x40
0298E:  MOVLB  0
02990:  CALL   0BDA
02994:  MOVLB  1
02996:  MOVF   xB6,W
02998:  IORWF  01,W
0299A:  MOVWF  xB4
0299C:  MOVF   xB7,W
0299E:  MOVWF  xB5
.................... 
....................     output_high(PIN_CS_ADC);
029A0:  BCF    F93.3
029A2:  BSF    F8A.3
.................... 
....................     return adc_val;
029A4:  MOVF   xB4,W
029A6:  MOVWF  01
029A8:  MOVF   xB5,W
029AA:  MOVWF  02
029AC:  MOVLB  0
029AE:  GOTO   2D8E (RETURN)
.................... }
.................... 
.................... // ============================================================================
.................... // иЁҲжё¬гӮ·гғјгӮұгғігӮ№гҒЁFlashдҝқеӯҳеҮҰзҗҶ
.................... // ============================================================================
.................... 
.................... void execute_measurement(uint8_t mode, uint8_t channel, uint8_t samplingRate)
*
02C8A:  MOVLW  01
02C8C:  MOVLB  1
02C8E:  MOVWF  xA7
02C90:  CLRF   xA8
02C92:  BSF    xA9.0
.................... {
....................     PacketBuffer packet;
....................     uint8_t currentPacketNum = 1; // иҰҒд»¶гҒ«еҗҲгӮҸгҒӣгҒҰгғ‘гӮұгғғгғҲ1гҒӢгӮүгӮ№гӮҝгғјгғҲ
....................     uint8_t dataIdxInPkt = 0;
....................     bool isFirstPacket = true;
.................... 
....................     fprintf(PC, "Start Measurement (Mode:%u, Ch:%u)\r\n", mode, channel);
02C94:  MOVLW  F4
02C96:  MOVWF  FF6
02C98:  MOVLW  03
02C9A:  MOVWF  FF7
02C9C:  MOVLW  00
02C9E:  MOVWF  FF8
02CA0:  MOVLW  18
02CA2:  MOVLB  2
02CA4:  MOVWF  x04
02CA6:  MOVLB  0
02CA8:  CALL   0A46
02CAC:  MOVFF  164,204
02CB0:  MOVLW  1B
02CB2:  MOVLB  2
02CB4:  MOVWF  x05
02CB6:  MOVLB  0
02CB8:  CALL   286E
02CBC:  MOVLW  0E
02CBE:  MOVWF  FF6
02CC0:  MOVLW  04
02CC2:  MOVWF  FF7
02CC4:  MOVLW  00
02CC6:  MOVWF  FF8
02CC8:  MOVLW  05
02CCA:  MOVLB  2
02CCC:  MOVWF  x04
02CCE:  MOVLB  0
02CD0:  CALL   0A46
02CD4:  MOVFF  165,204
02CD8:  MOVLW  1B
02CDA:  MOVLB  2
02CDC:  MOVWF  x05
02CDE:  MOVLB  0
02CE0:  CALL   286E
02CE4:  MOVLW  15
02CE6:  MOVWF  FF6
02CE8:  MOVLW  04
02CEA:  MOVWF  FF7
02CEC:  MOVLW  00
02CEE:  MOVWF  FF8
02CF0:  MOVLW  03
02CF2:  MOVLB  2
02CF4:  MOVWF  x04
02CF6:  MOVLB  0
02CF8:  CALL   0A46
.................... 
....................     // 1. е‘Ёиҫәеӣһи·ҜгҒ®йӣ»жәҗжҠ•е…ҘгҒЁе®үе®ҡеҫ…гҒЎ
....................     output_high(PIN_LDO_EN);
02CFC:  BCF    F96.1
02CFE:  BSF    F8D.1
....................     output_high(PIN_VREF_EN);
02D00:  BCF    F96.0
02D02:  BSF    F8D.0
....................     output_high(PIN_LED1); // иЁҲжё¬дёӯгӮӨгғігӮёгӮұгғјгӮҝON
02D04:  BCF    F92.5
02D06:  BSF    F89.5
....................     delay_ms(10);
02D08:  MOVLW  0A
02D0A:  MOVLB  2
02D0C:  MOVWF  x1C
02D0E:  MOVLB  0
02D10:  CALL   0996
.................... 
....................     // 2. гӮўгғҠгғӯгӮ°гӮ№гӮӨгғғгғҒгҒ®еҲҮгӮҠжӣҝгҒҲ
....................     switch_channel(channel);
02D14:  MOVFF  165,1B4
02D18:  GOTO   2918
.................... 
....................     // 3. IVгғҮгғјгӮҝиЁҲжё¬гғ«гғјгғ— (гғ‘гӮұгғғгғҲ1 гҖң 18гҒҫгҒ§еӣәе®ҡ)
....................     memset(packet.raw, 0, PACKET_SIZE);
02D1C:  MOVLW  01
02D1E:  MOVWF  FEA
02D20:  MOVLW  67
02D22:  MOVWF  FE9
02D24:  CLRF   00
02D26:  CLRF   02
02D28:  MOVLW  40
02D2A:  MOVWF  01
02D2C:  CALL   0F96
.................... 
....................     // жңҖеҲқгҒ®гғ‘гӮұгғғгғҲ(FirstPacket)гҒ®гғҳгғғгғҖгғјжғ…е ұгӮ’иЁӯе®ҡ
....................     packet.first.header.timestamp = get_current_sec();
02D30:  CALL   1382
02D34:  MOVFF  03,16A
02D38:  MOVFF  02,169
02D3C:  MOVFF  01,168
02D40:  MOVFF  00,167
....................     packet.first.header.mode = mode;
02D44:  MOVLB  1
02D46:  MOVF   x64,W
02D48:  ANDLW  07
02D4A:  MOVWF  00
02D4C:  MOVLW  F8
02D4E:  ANDWF  x6B,W
02D50:  IORWF  00,W
02D52:  MOVWF  x6B
....................     packet.first.header.channel = channel;
02D54:  BCF    x6B.3
02D56:  BTFSC  x65.0
02D58:  BSF    x6B.3
....................     packet.first.header.samplingRate = samplingRate;
02D5A:  SWAPF  x66,W
02D5C:  ANDLW  F0
02D5E:  MOVWF  00
02D60:  MOVLW  0F
02D62:  ANDWF  x6B,W
02D64:  IORWF  00,W
02D66:  MOVWF  x6B
....................     packet.first.header.dataCount = 554; // IVгғҮгғјгӮҝгҒ®з·Ҹж•°(еӣәе®ҡ): 27 + (17 * 31)
02D68:  MOVLW  02
02D6A:  MOVWF  x6D
02D6C:  MOVLW  2A
02D6E:  MOVWF  x6C
....................     packet.first.header.zeroFill = 0;
02D70:  CLRF   x6E
.................... 
....................     packet.first.packetNum = currentPacketNum;
02D72:  MOVFF  1A7,16F
02D76:  MOVLB  0
.................... 
....................     while (currentPacketNum <= 18)
02D78:  MOVLB  1
02D7A:  MOVF   xA7,W
02D7C:  SUBLW  12
02D7E:  BTFSC  FD8.0
02D80:  BRA    2D88
02D82:  MOVLB  0
02D84:  GOTO   2F9A
02D88:  MOVLB  0
....................     {
....................         uint16_t adc_val = read_adc_ltc2452();
02D8A:  GOTO   2958
02D8E:  MOVFF  02,1AB
02D92:  MOVFF  01,1AA
.................... 
....................         // --- 1гғ‘гӮұгғғгғҲзӣ®гҒ®еҮҰзҗҶ (гғҮгғјгӮҝ27еҖӢ) ---
....................         if (isFirstPacket)
02D96:  MOVLB  1
02D98:  BTFSC  xA9.0
02D9A:  BRA    2DA2
02D9C:  MOVLB  0
02D9E:  GOTO   2E9A
02DA2:  MOVLB  0
....................         {
....................             packet.first.adcData[dataIdxInPkt++] = adc_val;
02DA4:  MOVLB  1
02DA6:  MOVF   xA8,W
02DA8:  INCF   xA8,F
02DAA:  MOVWF  00
02DAC:  BCF    FD8.0
02DAE:  RLCF   00,F
02DB0:  MOVF   00,W
02DB2:  CLRF   03
02DB4:  ADDLW  70
02DB6:  MOVWF  FE9
02DB8:  MOVLW  01
02DBA:  ADDWFC 03,W
02DBC:  MOVWF  FEA
02DBE:  MOVFF  1AB,FEC
02DC2:  MOVF   FED,F
02DC4:  MOVFF  1AA,FEF
.................... 
....................             // гғ‘гӮұгғғгғҲгҒҢжәҖжқҜ(27еҖӢ)гҒ«гҒӘгҒЈгҒҹе ҙеҗҲ
....................             if (dataIdxInPkt == 27)
02DC8:  MOVF   xA8,W
02DCA:  SUBLW  1B
02DCC:  BTFSC  FD8.2
02DCE:  BRA    2DD6
02DD0:  MOVLB  0
02DD2:  GOTO   2E96
02DD6:  MOVLB  0
....................             {
....................                 packet.first.crc8 = calc_crc8(packet.raw, PACKET_SIZE - 1);
02DD8:  MOVLW  01
02DDA:  MOVLB  2
02DDC:  MOVWF  x3B
02DDE:  MOVLW  67
02DE0:  MOVWF  x3A
02DE2:  MOVLW  3F
02DE4:  MOVWF  x3C
02DE6:  MOVLB  0
02DE8:  CALL   1A94
02DEC:  MOVFF  01,1A6
.................... 
....................                 // FlashгҒёжӣёгҒҚиҫјгҒҝ
....................                 uint32_t write_address = MISF_CIGS_IV_DATA_START + iv_data.used_counter;
02DF0:  MOVLB  1
02DF2:  MOVF   x36,W
02DF4:  MOVWF  xAC
02DF6:  MOVLW  10
02DF8:  ADDWF  x37,W
02DFA:  MOVWF  xAD
02DFC:  MOVLW  7C
02DFE:  ADDWFC x38,W
02E00:  MOVWF  xAE
02E02:  MOVLW  00
02E04:  ADDWFC x39,W
02E06:  MOVWF  xAF
....................                 write_data_bytes(mis_fm, write_address, packet.raw, PACKET_SIZE);
02E08:  MOVFF  107,207
02E0C:  MOVFF  106,206
02E10:  MOVFF  105,205
02E14:  MOVFF  104,204
02E18:  MOVFF  1AF,20B
02E1C:  MOVFF  1AE,20A
02E20:  MOVFF  1AD,209
02E24:  MOVFF  1AC,208
02E28:  MOVLW  01
02E2A:  MOVLB  2
02E2C:  MOVWF  x0D
02E2E:  MOVLW  67
02E30:  MOVWF  x0C
02E32:  CLRF   x0F
02E34:  MOVLW  40
02E36:  MOVWF  x0E
02E38:  MOVLB  0
02E3A:  CALL   1710
.................... 
....................                 iv_data.used_counter += PACKET_SIZE;
02E3E:  MOVLW  40
02E40:  MOVLB  1
02E42:  ADDWF  x36,F
02E44:  MOVLW  00
02E46:  ADDWFC x37,F
02E48:  MOVLW  00
02E4A:  ADDWFC x38,F
02E4C:  MOVLW  00
02E4E:  ADDWFC x39,F
....................                 iv_data.uncopied_counter += PACKET_SIZE;
02E50:  MOVLW  40
02E52:  ADDWF  x3A,F
02E54:  MOVLW  00
02E56:  ADDWFC x3B,F
02E58:  MOVLW  00
02E5A:  ADDWFC x3C,F
02E5C:  MOVLW  00
02E5E:  ADDWFC x3D,F
.................... 
....................                 isFirstPacket = false;
02E60:  BCF    xA9.0
....................                 currentPacketNum++;
02E62:  INCF   xA7,F
.................... 
....................                 memset(packet.raw, 0, PACKET_SIZE);
02E64:  MOVLW  01
02E66:  MOVWF  FEA
02E68:  MOVLW  67
02E6A:  MOVWF  FE9
02E6C:  CLRF   00
02E6E:  CLRF   02
02E70:  MOVLW  40
02E72:  MOVWF  01
02E74:  MOVLB  0
02E76:  CALL   0F96
....................                 if (currentPacketNum <= 18)
02E7A:  MOVLB  1
02E7C:  MOVF   xA7,W
02E7E:  SUBLW  12
02E80:  BTFSC  FD8.0
02E82:  BRA    2E8A
02E84:  MOVLB  0
02E86:  GOTO   2E90
02E8A:  MOVLB  0
....................                 {
....................                     packet.sub.packetNum = currentPacketNum;
02E8C:  MOVFF  1A7,167
....................                 }
....................                 dataIdxInPkt = 0;
02E90:  MOVLB  1
02E92:  CLRF   xA8
02E94:  MOVLB  0
....................             }
....................         }
02E96:  GOTO   2F8A
....................         // --- 2гҖң18гғ‘гӮұгғғгғҲзӣ®гҒ®еҮҰзҗҶ (гғҮгғјгӮҝ31еҖӢ) ---
....................         else
....................         {
....................             packet.sub.adcData[dataIdxInPkt++] = adc_val;
02E9A:  MOVLB  1
02E9C:  MOVF   xA8,W
02E9E:  INCF   xA8,F
02EA0:  MOVWF  00
02EA2:  BCF    FD8.0
02EA4:  RLCF   00,F
02EA6:  MOVF   00,W
02EA8:  CLRF   03
02EAA:  ADDLW  68
02EAC:  MOVWF  FE9
02EAE:  MOVLW  01
02EB0:  ADDWFC 03,W
02EB2:  MOVWF  FEA
02EB4:  MOVFF  1AB,FEC
02EB8:  MOVF   FED,F
02EBA:  MOVFF  1AA,FEF
.................... 
....................             // гғ‘гӮұгғғгғҲгҒҢжәҖжқҜ(31еҖӢ)гҒ«гҒӘгҒЈгҒҹе ҙеҗҲ
....................             if (dataIdxInPkt == 31)
02EBE:  MOVF   xA8,W
02EC0:  SUBLW  1F
02EC2:  BTFSC  FD8.2
02EC4:  BRA    2ECC
02EC6:  MOVLB  0
02EC8:  GOTO   2F8A
02ECC:  MOVLB  0
....................             {
....................                 packet.sub.crc8 = calc_crc8(packet.raw, PACKET_SIZE - 1);
02ECE:  MOVLW  01
02ED0:  MOVLB  2
02ED2:  MOVWF  x3B
02ED4:  MOVLW  67
02ED6:  MOVWF  x3A
02ED8:  MOVLW  3F
02EDA:  MOVWF  x3C
02EDC:  MOVLB  0
02EDE:  CALL   1A94
02EE2:  MOVFF  01,1A6
.................... 
....................                 // FlashгҒёжӣёгҒҚиҫјгҒҝ
....................                 uint32_t write_address = MISF_CIGS_IV_DATA_START + iv_data.used_counter;
02EE6:  MOVLB  1
02EE8:  MOVF   x36,W
02EEA:  MOVWF  xB0
02EEC:  MOVLW  10
02EEE:  ADDWF  x37,W
02EF0:  MOVWF  xB1
02EF2:  MOVLW  7C
02EF4:  ADDWFC x38,W
02EF6:  MOVWF  xB2
02EF8:  MOVLW  00
02EFA:  ADDWFC x39,W
02EFC:  MOVWF  xB3
....................                 write_data_bytes(mis_fm, write_address, packet.raw, PACKET_SIZE);
02EFE:  MOVFF  107,207
02F02:  MOVFF  106,206
02F06:  MOVFF  105,205
02F0A:  MOVFF  104,204
02F0E:  MOVFF  1B3,20B
02F12:  MOVFF  1B2,20A
02F16:  MOVFF  1B1,209
02F1A:  MOVFF  1B0,208
02F1E:  MOVLW  01
02F20:  MOVLB  2
02F22:  MOVWF  x0D
02F24:  MOVLW  67
02F26:  MOVWF  x0C
02F28:  CLRF   x0F
02F2A:  MOVLW  40
02F2C:  MOVWF  x0E
02F2E:  MOVLB  0
02F30:  CALL   1710
.................... 
....................                 iv_data.used_counter += PACKET_SIZE;
02F34:  MOVLW  40
02F36:  MOVLB  1
02F38:  ADDWF  x36,F
02F3A:  MOVLW  00
02F3C:  ADDWFC x37,F
02F3E:  MOVLW  00
02F40:  ADDWFC x38,F
02F42:  MOVLW  00
02F44:  ADDWFC x39,F
....................                 iv_data.uncopied_counter += PACKET_SIZE;
02F46:  MOVLW  40
02F48:  ADDWF  x3A,F
02F4A:  MOVLW  00
02F4C:  ADDWFC x3B,F
02F4E:  MOVLW  00
02F50:  ADDWFC x3C,F
02F52:  MOVLW  00
02F54:  ADDWFC x3D,F
.................... 
....................                 currentPacketNum++;
02F56:  INCF   xA7,F
.................... 
....................                 memset(packet.raw, 0, PACKET_SIZE);
02F58:  MOVLW  01
02F5A:  MOVWF  FEA
02F5C:  MOVLW  67
02F5E:  MOVWF  FE9
02F60:  CLRF   00
02F62:  CLRF   02
02F64:  MOVLW  40
02F66:  MOVWF  01
02F68:  MOVLB  0
02F6A:  CALL   0F96
....................                 if (currentPacketNum <= 18)
02F6E:  MOVLB  1
02F70:  MOVF   xA7,W
02F72:  SUBLW  12
02F74:  BTFSC  FD8.0
02F76:  BRA    2F7E
02F78:  MOVLB  0
02F7A:  GOTO   2F84
02F7E:  MOVLB  0
....................                 {
....................                     packet.sub.packetNum = currentPacketNum;
02F80:  MOVFF  1A7,167
....................                 }
....................                 dataIdxInPkt = 0;
02F84:  MOVLB  1
02F86:  CLRF   xA8
02F88:  MOVLB  0
....................             }
....................         }
.................... 
....................         // Sampling Rate гҒ«еҝңгҒҳгҒҹгӮҰгӮ§гӮӨгғҲеҮҰзҗҶ
....................         delay_ms(1);
02F8A:  MOVLW  01
02F8C:  MOVLB  2
02F8E:  MOVWF  x1C
02F90:  MOVLB  0
02F92:  CALL   0996
02F96:  GOTO   2D78
....................     }
.................... 
....................     // 4. IVиЁҲжё¬гҒҢе®ҢдәҶгҒ—гҒҹгӮүгҖҒеј•гҒҚз¶ҡгҒ„гҒҰжё©еәҰиЁҲжё¬гӮ·гғјгӮұгғігӮ№гӮ’е‘јгҒіеҮәгҒҷ
....................     // гғ‘гӮұгғғгғҲ19гҒӢгӮү14гғ‘гӮұгғғгғҲеҲҶ (гғ‘гӮұгғғгғҲ19гҖң32) гӮ’ж•·гҒҚи©°гӮҒгӮӢ
....................     execute_temp_measurement(19, 14);
02F9A:  MOVLW  13
02F9C:  MOVLB  1
02F9E:  MOVWF  xB4
02FA0:  MOVLW  0E
02FA2:  MOVWF  xB5
02FA4:  MOVLB  0
02FA6:  GOTO   29D2
.................... 
....................     // 5. е‘Ёиҫәеӣһи·ҜгҒ®йӣ»жәҗOFF
....................     output_low(PIN_LDO_EN);
02FAA:  BCF    F96.1
02FAC:  BCF    F8D.1
....................     output_low(PIN_VREF_EN);
02FAE:  BCF    F96.0
02FB0:  BCF    F8D.0
....................     output_low(PIN_LED1);
02FB2:  BCF    F92.5
02FB4:  BCF    F89.5
.................... 
....................     fprintf(PC, "End CIGS Measurement Sequence\r\n");
02FB6:  MOVLW  1A
02FB8:  MOVWF  FF6
02FBA:  MOVLW  04
02FBC:  MOVWF  FF7
02FBE:  MOVLW  00
02FC0:  MOVWF  FF8
02FC2:  CALL   0A16
.................... 
....................     // гғ•гғ©гғғгӮ·гғҘгҒ®гӮўгғүгғ¬гӮ№з®ЎзҗҶй ҳеҹҹгӮ’гҒҫгҒЁгӮҒгҒҰжӣҙж–°
....................     write_misf_address_area();
02FC6:  CALL   1F14
02FCA:  GOTO   3060 (RETURN)
.................... }
.................... 
.................... #include "../core/measurement/son_tmp_temp.c"
.................... #include "son_tmp_temp.h"
.................... #ifndef son_tmp_TEMP_H
.................... #define son_tmp_TEMP_H
.................... 
.................... #include <stdint.h>
.................... #include <stdbool.h>
.................... #include "../../system/son_tmp_config.h"
.................... 
.................... // ============================================================================
.................... // жё©еәҰгғҮгғјгӮҝз”Ёгғ‘гӮұгғғгғҲж§ӢйҖ дҪ“ (64Byte)
.................... // ============================================================================
.................... typedef struct
.................... {
....................     uint8_t packetNum;       // гғ‘гӮұгғғгғҲз•ӘеҸ· (1 Byte)
....................     uint8_t tempData[62];    // жё©еәҰгғҮгғјгӮҝжң¬дҪ“ (62 Byte = 12bit x 41гғҮгғјгӮҝ)
....................     uint8_t crc8;            // CRC-8 (1 Byte)
.................... } TempPacket;
.................... 
.................... // гғЎгғўгғӘгғҗгғғгғ•гӮЎз”Ёе…ұз”ЁдҪ“
.................... typedef union
.................... {
....................     uint8_t raw[PACKET_SIZE];
....................     TempPacket temp;
.................... } TempPacketBuffer;
.................... 
.................... // ============================================================================
.................... // еӨ–йғЁе…¬й–Ӣй–ўж•°гғ—гғӯгғҲгӮҝгӮӨгғ—
.................... // ============================================================================
.................... 
.................... // еҶ…и”өADCгҒ®еҲқжңҹеҢ–
.................... void temp_io_init(void);
.................... 
.................... // еҶ…и”өADCгҒӢгӮүжё©еәҰгӮ»гғігӮөгғјгҒ®еҖӨгӮ’иӘӯгҒҝеҸ–гӮӢ (12bit)
.................... uint16_t read_adc_internal(void);
.................... 
.................... // жё©еәҰиЁҲжё¬гӮ·гғјгӮұгғігӮ№гҒ®е®ҹиЎҢгҒЁFlashгҒёгҒ®дҝқеӯҳ
.................... // startPacketNum: й–Ӣе§Ӣгғ‘гӮұгғғгғҲз•ӘеҸ· (19)
.................... // packetCount: е®ҹиЎҢгҒҷгӮӢгғ‘гӮұгғғгғҲж•° (14)
.................... void execute_temp_measurement(uint8_t startPacketNum, uint8_t packetCount);
.................... 
.................... #endif // son_tmp_TEMP_H
.................... 
.................... #include "../../hardware/mcu/timer.h"
.................... #ifndef TIMER_H
.................... #define TIMER_H
.................... 
.................... #include <stdint.h>
.................... 
.................... // __________ values _________
.................... 
.................... // гғ‘гӮұгғғгғҲгғҳгғғгғҖгғјгҒ® timestamp гҒ§дҪҝз”ЁгҒҷгӮӢгҒҹгӮҒгҒ®з§’гӮ«гӮҰгғігӮҝ
.................... extern volatile uint32_t sec;
.................... 
.................... 
.................... // __________ functions _________
.................... uint32_t get_current_sec();
.................... void set_current_sec(uint32_t new_sec);
.................... void setup_timer();
.................... 
.................... #INT_TIMER1
.................... void TIMER1_isr();
.................... 
.................... #endif
.................... 
.................... #include "../storage/son_tmp_flash.h"
.................... #ifndef son_tmp_FLASH_H
.................... #define son_tmp_FLASH_H
.................... 
.................... #include <stdint.h>
.................... #include <string.h>
.................... #include "../../system/son_tmp_config.h"
.................... 
.................... // е…ұйҖҡгғ©гӮӨгғ–гғ©гғӘгҒ®гғҳгғғгғҖ (MissionIDгҒӘгҒ©гҒ®е®ҡж•°з”Ё)
.................... // #include "../../../lib/communication/typedef_content.h"
.................... // #include "../../../lib/communication/value_status.h"
.................... 
.................... // ============================================================================
.................... // гғЎгғўгғӘгғһгғғгғ—е®ҡзҫ© (MT25QL128ABA: 16MB)
.................... // ============================================================================
.................... #define MISF_START 0x00000000
.................... #define MISF_END   0x00FFFFFF
.................... 
.................... #define SECTOR_64K_BYTE  0x10000
.................... 
.................... #define MISF_CIGS_DATA_TABLE_SIZE 64
.................... 
.................... #define MISF_CIGS_DATA_TABLE_START 0x00000000
.................... #define MISF_CIGS_DATA_TABLE_END   0x00000FFF
.................... #define MISF_CIGS_PICLOG_START     0x00010000
.................... #define MISF_CIGS_PICLOG_END       0x00140FFF
.................... #define MISF_CIGS_ENVIRO_START     0x00281000
.................... #define MISF_CIGS_ENVIRO_END       0x00320FFF
.................... #define MISF_CIGS_IV_HEADER_START  0x00721000
.................... #define MISF_CIGS_IV_HEADER_END    0x007C0FFF
.................... #define MISF_CIGS_IV_DATA_START    0x007C1000
.................... #define MISF_CIGS_IV_DATA_END      0x00D00000
.................... 
.................... // ============================================================================
.................... // гғҮгғјгӮҝж§ӢйҖ дҪ“е®ҡзҫ©
.................... // ============================================================================
.................... 
.................... // гғ•гғ©гғғгӮ·гғҘгӮ«гӮҰгғігӮҝж§ӢйҖ дҪ“ (11 Bytes)
.................... typedef struct
.................... {
....................     uint8_t   mission_id;
....................     uint32_t  used_counter;
....................     uint32_t  uncopied_counter;
....................     uint8_t   reserve_counter1;
....................     uint8_t   reserve_counter2;
.................... } Flash_t;
.................... 
.................... // гғҶгғјгғ–гғ«дҝқеӯҳз”ЁгҒ®64Byteгғ‘гӮұгғғгғҲж§ӢйҖ дҪ“
.................... typedef union
.................... {
....................     struct
....................     {
....................         union
....................         {
....................             struct
....................             {
....................                 Flash_t piclog;
....................                 Flash_t environment;
....................                 Flash_t iv_header;
....................                 Flash_t iv_data;
....................             } logdata;
....................             uint8_t reserve[63];
....................         } payload;
....................         uint8_t crc; // 1гғҗгӮӨгғҲгҒ®CRC
....................     } packet;
....................     uint8_t bytes[64];
.................... } FlashData_t;
.................... 
.................... typedef struct
.................... {
....................     uint32_t start_address;
....................     uint32_t end_address;
.................... } MisfStatusStruct;
.................... 
.................... typedef struct
.................... {
....................     uint32_t start_address;
....................     uint32_t size;
.................... } MisfWriteStruct;
.................... 
.................... // ============================================================================
.................... // гӮ°гғӯгғјгғҗгғ«еӨүж•° (е®ЈиЁҖгҒ®гҒҝгҖҒе®ҹдҪ“гҒҜ.cгғ•гӮЎгӮӨгғ«гҒ«иЁҳиҝ°)
.................... // ============================================================================
.................... extern Flash_t piclog_data;
.................... extern Flash_t environment_data;
.................... extern Flash_t iv_header;
.................... extern Flash_t iv_data;
.................... 
.................... // ============================================================================
.................... // еӨ–йғЁе…¬й–Ӣй–ўж•°гғ—гғӯгғҲгӮҝгӮӨгғ—
.................... // ============================================================================
.................... void misf_init(void);
.................... FlashData_t make_flash_data_table(void);
.................... void write_misf_address_area(void);
.................... MisfStatusStruct get_misf_status_struct(uint8_t mission_id);
.................... MisfWriteStruct get_misf_write_struct(uint8_t mission_id);
.................... void print_flash_status(void);
.................... 
.................... #endif // son_tmp_FLASH_H
.................... 
.................... #include "../../../lib/tool/calc_tools.h"
.................... #ifndef CALC_TOOLS_H
.................... #define CALC_TOOLS_H
....................  
.................... unsigned int8 calc_crc8(unsigned int8 *frame, unsigned int8 payload_size);
.................... int1 is_crc_valid(unsigned int8 *frame, int8 payload_size);
.................... void int32_to_be_array(int32 value, int8 *buf, int8 index);
.................... int32 lsb_array_to_int32(int8 *buf, int8 index);
.................... unsigned int32 lsb_to_msb(unsigned int32 value);
.................... unsigned int32 msb_to_lsb(unsigned int32 value);
.................... 
.................... 
.................... #endif // CALC_TOOLS_H  
.................... 
.................... #include "../../../lib/device/mt25q.h"
.................... #ifndef MT25Q_H
.................... #define MT25Q_H
.................... 
.................... // =========
.................... //#define MT25Q_DEBUG
.................... // =========
.................... 
.................... 
.................... #define FLASH_STREAM0 MIS_FM_STREAM     // <- Align the names to `config.h` Stream name
.................... #define FLASH_STREAM1 SMF_STREAM
.................... #define FLASH_STREAM2 SMF_STREAM // dont use
.................... #define FLASH_STREAM3 SMF_STREAM // dont use
.................... 
.................... typedef enum spi_stream{
....................     SPI_0,
....................     SPI_1,
....................     SPI_2,
....................     SPI_3,
.................... }SpiStreamId;
.................... 
.................... #define MT25QL128ABA 0x00     //Mission Flash
.................... #define MT25QL01GBBB 0x01     //SMF,CF
.................... typedef struct select_stream_to_flash{
....................     SpiStreamId spi_stream_id;
....................     unsigned int8 flash_model;
....................     int16 cs_pin;
.................... }Flash;
.................... 
.................... 
.................... Flash mis_fm = {SPI_0, MT25QL128ABA, MIS_FM_CS};
.................... Flash smf = {SPI_1, MT25QL01GBBB, SMF_CS};
.................... 
.................... 
.................... 
.................... // ===================== Function List =====================
.................... // Public Functions
.................... 
.................... int1 is_connect(Flash flash_stream);
.................... 
.................... void write_data_bytes(Flash flash_stream, unsigned int32 write_start_address, int8 *write_data, unsigned int16 write_amount);      
.................... 
.................... void read_data_bytes(Flash flash_stream, unsigned int32 read_start_address, int8 *read_data, unsigned int32 read_amount);  
.................... 
.................... void sector_erase(Flash flash_stream, unsigned int32 sector_address);
.................... 
.................... void subsector_32kByte_erase(Flash flash_stream, unsigned int32 subsector_address);  
....................                                
.................... void subsector_4kByte_erase(Flash flash_stream, unsigned int32 subsector_address);      
.................... 
.................... //Private Functions
....................  
.................... void flash_setting(Flash flash_stream);
....................  
.................... int8 status_register(Flash flash_stream);
....................  
.................... int8 read_id(Flash flash_stream);
....................  
.................... int8 read_data_byte(Flash flash_stream, unsigned int32 read_address);                                               
....................  
.................... void write_data_byte(Flash flash_stream, unsigned int32 write_address,int8 write_data);                             
....................         //
.................... 
.................... 
.................... // ===================== Flash Commands =====================
.................... #define CMD_READ_ID                     0x9F
.................... #define CMD_READ_STATUS_REGISTER        0x05
.................... #define CMD_READ                        0x03//for MT25QL128ABA
.................... #define CMD_4BYTE_READ                  0x13//for MT25QL01GBBB
.................... #define CMD_WRITE_ENABLE                0x06
.................... #define CMD_PAGE_PROGRAM                0x02//for MT25QL128ABA
.................... #define CMD_4BYTE_PAGE_PROGRAM          0x12//for MT25QL01GBBB
.................... #define CMD_SUBSECTOR_4KB_ERASE         0x20//for MT25QL128ABA
.................... #define CMD_4BYTE_SUBSECTOR_4KB_ERASE   0x21//for MT25QL01GBBB
.................... #define CMD_SUBSECTOR_32KB_ERASE        0x52//for MT25QL128ABA
.................... #define CMD_4BYTE_SUBSECTOR_32KB_ERASE  0x5C//for MT25QL01GBBB
.................... #define CMD_SECTOR_ERASE                0xD8//for MT25QL128ABA
.................... #define CMD_4BYTE_SECTOR_ERASE          0xDC//for MT25QL01GBBB
.................... 
.................... // ====================== Value List =====================
.................... #define MANUFACTURER_ID_MICRON 0x20 // Manufacturer ID for Micron flash
.................... #define READ_ID_DATASIZE 20 // 20 bytes for read ID data
.................... 
.................... 
.................... // ====================== Data Structures =====================
.................... typedef union
.................... {
....................     unsigned int8 bytes[READ_ID_DATASIZE]; // 20 bytes for read ID
....................     struct {
....................         unsigned int8 manufacturer_id; // 1 byte
....................         unsigned int8 memory_type;     // 1 byte
....................         unsigned int8 capacity;        // 1 byte
....................         unsigned int8 reserved;       // 1 byte
....................     } fields;
.................... }READ_ID_DATA;
.................... 
.................... 
.................... #endif
.................... 
.................... 
.................... 
.................... 
.................... // ============================================================================
.................... // гғҸгғјгғүгӮҰгӮ§гӮўгғ»гғҡгғӘгғ•гӮ§гғ©гғ«еҲ¶еҫЎ (PICеҶ…и”өADC)
.................... // ============================================================================
.................... 
.................... void temp_io_init(void)
.................... {
....................     fprintf(PC, "Temp IO Initialize\r\n");
*
00A7C:  MOVLW  3A
00A7E:  MOVWF  FF6
00A80:  MOVLW  04
00A82:  MOVWF  FF7
00A84:  MOVLW  00
00A86:  MOVWF  FF8
00A88:  CALL   0A16
.................... 
....................     // вҖ» е®ҹйҡӣгҒ®гғҸгғјгғүгӮҰгӮ§гӮўй…Қз·ҡгҒ«еҗҲгӮҸгҒӣгҒҰ sANx (гӮўгғҠгғӯгӮ°гғ”гғі) гӮ’иӘҝж•ҙгҒ—гҒҰгҒҸгҒ гҒ•гҒ„
....................     // гҒ“гҒ“гҒ§гҒҜд»®гҒ« AN0 (sAN0) гӮ’дҪҝз”ЁгҒҷгӮӢиЁӯе®ҡгҒЁгҒ—гҒҰгҒ„гҒҫгҒҷ
....................     setup_adc_ports(sAN0);
00A8C:  MOVLB  E
00A8E:  CLRF   x45
00A90:  CLRF   x46
00A92:  MOVLW  01
00A94:  MOVWF  x47
00A96:  BCF    x8D.7
00A98:  BCF    x8D.6
00A9A:  BCF    x8D.5
....................     setup_adc(ADC_CLOCK_INTERNAL);
00A9C:  MOVLW  9F
00A9E:  MOVWF  x8B
00AA0:  CLRF   x8A
00AA2:  MOVLW  70
00AA4:  MOVWF  FC0
00AA6:  MOVLW  82
00AA8:  MOVWF  FC1
....................     set_adc_channel(0);
00AAA:  CLRF   x86
.................... 
....................     fprintf(PC, "\tComplete\r\n");
00AAC:  MOVLW  50
00AAE:  MOVWF  FF6
00AB0:  MOVLW  04
00AB2:  MOVWF  FF7
00AB4:  MOVLW  00
00AB6:  MOVWF  FF8
00AB8:  MOVLB  0
00ABA:  CALL   0A16
00ABE:  GOTO   0AFA (RETURN)
.................... }
.................... 
.................... uint16_t read_adc_internal(void)
.................... {
....................     // ADCгҒ®гғҒгғЈгғҚгғ«еҲҮгӮҠжӣҝгҒҲгғ»гӮөгғігғ—гғӘгғігӮ°е®үе®ҡеҫ…гҒЎ
....................     delay_us(20);
*
029B2:  MOVLW  1A
029B4:  MOVWF  00
029B6:  DECFSZ 00,F
029B8:  BRA    29B6
029BA:  NOP   
.................... 
....................     // PIC18F67J94гҒ®12bit ADCеҖӨгӮ’иӘӯгҒҝеҸ–гҒЈгҒҰиҝ”гҒҷ
....................     return read_adc();
029BC:  BCF    FC0.0
029BE:  BSF    FC0.1
029C0:  BTFSS  FC0.0
029C2:  GOTO   29C0
029C6:  MOVF   FC3,W
029C8:  CLRF   03
029CA:  MOVWF  01
029CC:  MOVF   03,W
029CE:  MOVWF  02
029D0:  RETURN 0
.................... }
.................... 
.................... // ============================================================================
.................... // жё©еәҰиЁҲжё¬гӮ·гғјгӮұгғігӮ№гҒЁгғҮгғјгӮҝгғ‘гғғгӮӯгғігӮ°
.................... // ============================================================================
.................... 
.................... void execute_temp_measurement(uint8_t startPacketNum, uint8_t packetCount)
029D2:  MOVFF  1B4,1F6
029D6:  MOVLB  1
029D8:  MOVF   xB5,W
029DA:  ADDWF  xB4,W
029DC:  ADDLW  FF
029DE:  MOVWF  xF7
.................... {
....................     TempPacketBuffer packet;
....................     uint8_t currentPacketNum = startPacketNum;
....................     uint8_t endPacketNum = startPacketNum + packetCount - 1;
.................... 
....................     fprintf(PC, "Start Temp Measurement (Packets %u to %u)\r\n", startPacketNum, endPacketNum);
029E0:  MOVLW  5C
029E2:  MOVWF  FF6
029E4:  MOVLW  04
029E6:  MOVWF  FF7
029E8:  MOVLW  00
029EA:  MOVWF  FF8
029EC:  MOVLW  20
029EE:  MOVLB  2
029F0:  MOVWF  x04
029F2:  MOVLB  0
029F4:  CALL   0A46
029F8:  MOVFF  1B4,204
029FC:  MOVLW  1B
029FE:  MOVLB  2
02A00:  MOVWF  x05
02A02:  MOVLB  0
02A04:  CALL   286E
02A08:  MOVLW  7E
02A0A:  MOVWF  FF6
02A0C:  MOVLW  04
02A0E:  MOVWF  FF7
02A10:  MOVLW  00
02A12:  MOVWF  FF8
02A14:  MOVLW  04
02A16:  MOVLB  2
02A18:  MOVWF  x04
02A1A:  MOVLB  0
02A1C:  CALL   0A46
02A20:  MOVFF  1F7,204
02A24:  MOVLW  1B
02A26:  MOVLB  2
02A28:  MOVWF  x05
02A2A:  MOVLB  0
02A2C:  CALL   286E
02A30:  MOVLW  84
02A32:  MOVWF  FF6
02A34:  MOVLW  04
02A36:  MOVWF  FF7
02A38:  MOVLW  00
02A3A:  MOVWF  FF8
02A3C:  MOVLW  03
02A3E:  MOVLB  2
02A40:  MOVWF  x04
02A42:  MOVLB  0
02A44:  CALL   0A46
.................... 
....................     while (currentPacketNum <= endPacketNum)
02A48:  MOVLB  1
02A4A:  MOVF   xF6,W
02A4C:  SUBWF  xF7,W
02A4E:  BTFSC  FD8.0
02A50:  BRA    2A58
02A52:  MOVLB  0
02A54:  GOTO   2C76
02A58:  MOVLB  0
....................     {
....................         memset(packet.raw, 0, PACKET_SIZE);
02A5A:  MOVLW  01
02A5C:  MOVWF  FEA
02A5E:  MOVLW  B6
02A60:  MOVWF  FE9
02A62:  CLRF   00
02A64:  CLRF   02
02A66:  MOVLW  40
02A68:  MOVWF  01
02A6A:  CALL   0F96
....................         packet.temp.packetNum = currentPacketNum;
02A6E:  MOVFF  1F6,1B6
.................... 
....................         uint8_t idx = 0;
02A72:  MOVLB  1
02A74:  CLRF   xF8
.................... 
....................         // 1. 2гҒӨгҒ®12bitгғҮгғјгӮҝгӮ’3ByteгҒ«ең§зё®гҒҷгӮӢеҮҰзҗҶ (20гғҡгӮў = 40гғҮгғјгӮҝ)
....................         for (uint8_t i = 0; i < 20; i++)
02A76:  CLRF   xF9
02A78:  MOVLB  0
02A7A:  MOVLB  1
02A7C:  MOVF   xF9,W
02A7E:  SUBLW  13
02A80:  BTFSC  FD8.0
02A82:  BRA    2A8A
02A84:  MOVLB  0
02A86:  GOTO   2B54
02A8A:  MOVLB  0
....................         {
....................             uint16_t temp1 = read_adc_internal();
....................             uint16_t temp2 = read_adc_internal();
02A8C:  CALL   29B2
02A90:  MOVFF  02,1FB
02A94:  MOVFF  01,1FA
02A98:  CALL   29B2
02A9C:  MOVFF  02,1FD
02AA0:  MOVFF  01,1FC
.................... 
....................             // temp1гҒ®дёҠдҪҚ8bit
....................             packet.temp.tempData[idx++] = (temp1 >> 4) & 0xFF;
02AA4:  MOVLB  1
02AA6:  MOVF   xF8,W
02AA8:  INCF   xF8,F
02AAA:  CLRF   03
02AAC:  ADDLW  B7
02AAE:  MOVWF  FE9
02AB0:  MOVLW  01
02AB2:  ADDWFC 03,W
02AB4:  MOVWF  FEA
02AB6:  RRCF   xFB,W
02AB8:  MOVLB  2
02ABA:  MOVWF  x07
02ABC:  MOVLB  1
02ABE:  RRCF   xFA,W
02AC0:  MOVLB  2
02AC2:  MOVWF  x06
02AC4:  RRCF   x07,F
02AC6:  RRCF   x06,F
02AC8:  RRCF   x07,F
02ACA:  RRCF   x06,F
02ACC:  RRCF   x07,F
02ACE:  RRCF   x06,F
02AD0:  MOVLW  0F
02AD2:  ANDWF  x07,F
02AD4:  MOVF   x06,W
02AD6:  MOVWF  00
02AD8:  CLRF   03
02ADA:  MOVF   00,W
02ADC:  MOVWF  FEF
....................             // temp1гҒ®дёӢдҪҚ4bit + temp2гҒ®дёҠдҪҚ4bit
....................             packet.temp.tempData[idx++] = ((temp1 & 0x0F) << 4) | ((temp2 >> 8) & 0x0F);
02ADE:  MOVLB  1
02AE0:  MOVF   xF8,W
02AE2:  INCF   xF8,F
02AE4:  CLRF   03
02AE6:  ADDLW  B7
02AE8:  MOVWF  FE9
02AEA:  MOVLW  01
02AEC:  ADDWFC 03,W
02AEE:  MOVWF  FEA
02AF0:  MOVF   xFA,W
02AF2:  ANDLW  0F
02AF4:  MOVLB  2
02AF6:  MOVWF  x06
02AF8:  CLRF   x07
02AFA:  RLCF   x06,F
02AFC:  RLCF   x07,F
02AFE:  RLCF   x06,F
02B00:  RLCF   x07,F
02B02:  RLCF   x06,F
02B04:  RLCF   x07,F
02B06:  RLCF   x06,F
02B08:  RLCF   x07,F
02B0A:  MOVLW  F0
02B0C:  ANDWF  x06,F
02B0E:  MOVFF  1FD,208
02B12:  CLRF   x09
02B14:  MOVF   x08,W
02B16:  ANDLW  0F
02B18:  MOVWF  00
02B1A:  CLRF   03
02B1C:  MOVF   00,W
02B1E:  IORWF  x06,W
02B20:  MOVWF  00
02B22:  MOVF   03,W
02B24:  IORWF  x07,W
02B26:  MOVWF  03
02B28:  MOVF   00,W
02B2A:  MOVWF  FEF
....................             // temp2гҒ®дёӢдҪҚ8bit
....................             packet.temp.tempData[idx++] = temp2 & 0xFF;
02B2C:  MOVLB  1
02B2E:  MOVF   xF8,W
02B30:  INCF   xF8,F
02B32:  CLRF   03
02B34:  ADDLW  B7
02B36:  MOVWF  FE9
02B38:  MOVLW  01
02B3A:  ADDWFC 03,W
02B3C:  MOVWF  FEA
02B3E:  MOVF   xFC,W
02B40:  MOVWF  00
02B42:  CLRF   03
02B44:  MOVF   00,W
02B46:  MOVWF  FEF
02B48:  MOVLB  0
02B4A:  MOVLB  1
02B4C:  INCF   xF9,F
02B4E:  MOVLB  0
02B50:  GOTO   2A7A
....................         }
.................... 
....................         // 2. жңҖеҫҢгҒ®2ByteгҒ«1гҒӨгҒ®12bitгғҮгғјгӮҝгҒЁ4bitгҒ®0fillгӮ’ж јзҙҚ (41гғҮгғјгӮҝзӣ®)
....................         uint16_t temp3 = read_adc_internal();
02B54:  CALL   29B2
02B58:  MOVFF  02,1FF
02B5C:  MOVFF  01,1FE
....................         packet.temp.tempData[idx++] = (temp3 >> 4) & 0xFF;
02B60:  MOVLB  1
02B62:  MOVF   xF8,W
02B64:  INCF   xF8,F
02B66:  CLRF   03
02B68:  ADDLW  B7
02B6A:  MOVWF  FE9
02B6C:  MOVLW  01
02B6E:  ADDWFC 03,W
02B70:  MOVWF  FEA
02B72:  RRCF   xFF,W
02B74:  MOVLB  2
02B76:  MOVWF  x07
02B78:  MOVLB  1
02B7A:  RRCF   xFE,W
02B7C:  MOVLB  2
02B7E:  MOVWF  x06
02B80:  RRCF   x07,F
02B82:  RRCF   x06,F
02B84:  RRCF   x07,F
02B86:  RRCF   x06,F
02B88:  RRCF   x07,F
02B8A:  RRCF   x06,F
02B8C:  MOVLW  0F
02B8E:  ANDWF  x07,F
02B90:  MOVF   x06,W
02B92:  MOVWF  00
02B94:  CLRF   03
02B96:  MOVF   00,W
02B98:  MOVWF  FEF
....................         packet.temp.tempData[idx++] = (temp3 & 0x0F) << 4; // ж®ӢгӮҠ4bitгҒҜиҮӘеӢ•зҡ„гҒ«0fill
02B9A:  MOVLB  1
02B9C:  MOVF   xF8,W
02B9E:  INCF   xF8,F
02BA0:  CLRF   03
02BA2:  ADDLW  B7
02BA4:  MOVWF  FE9
02BA6:  MOVLW  01
02BA8:  ADDWFC 03,W
02BAA:  MOVWF  FEA
02BAC:  MOVF   xFE,W
02BAE:  ANDLW  0F
02BB0:  MOVLB  2
02BB2:  MOVWF  x06
02BB4:  CLRF   x07
02BB6:  RLCF   x06,W
02BB8:  MOVWF  02
02BBA:  RLCF   x07,W
02BBC:  MOVWF  03
02BBE:  RLCF   02,F
02BC0:  RLCF   03,F
02BC2:  RLCF   02,F
02BC4:  RLCF   03,F
02BC6:  RLCF   02,F
02BC8:  RLCF   03,F
02BCA:  MOVLW  F0
02BCC:  ANDWF  02,F
02BCE:  MOVF   02,W
02BD0:  MOVWF  FEF
.................... 
....................         // 3. CRC-8гҒ®иЁҲз®—гҒЁж јзҙҚ
....................         packet.temp.crc8 = calc_crc8(packet.raw, PACKET_SIZE - 1);
02BD2:  MOVLW  01
02BD4:  MOVWF  x3B
02BD6:  MOVLW  B6
02BD8:  MOVWF  x3A
02BDA:  MOVLW  3F
02BDC:  MOVWF  x3C
02BDE:  MOVLB  0
02BE0:  CALL   1A94
02BE4:  MOVFF  01,1F5
.................... 
....................         // 4. FlashгҒёжӣёгҒҚиҫјгҒҝ (IVгғҮгғјгӮҝй ҳеҹҹгҒ«гҒқгҒ®гҒҫгҒҫйҖЈгҒӯгҒҰдҝқеӯҳгҒҷгӮӢ)
....................         uint32_t write_address = MISF_CIGS_IV_DATA_START + iv_data.used_counter;
02BE8:  MOVLB  1
02BEA:  MOVF   x36,W
02BEC:  MOVLB  2
02BEE:  MOVWF  x00
02BF0:  MOVLW  10
02BF2:  MOVLB  1
02BF4:  ADDWF  x37,W
02BF6:  MOVLB  2
02BF8:  MOVWF  x01
02BFA:  MOVLW  7C
02BFC:  MOVLB  1
02BFE:  ADDWFC x38,W
02C00:  MOVLB  2
02C02:  MOVWF  x02
02C04:  MOVLW  00
02C06:  MOVLB  1
02C08:  ADDWFC x39,W
02C0A:  MOVLB  2
02C0C:  MOVWF  x03
....................         write_data_bytes(mis_fm, write_address, packet.raw, PACKET_SIZE);
02C0E:  MOVFF  107,207
02C12:  MOVFF  106,206
02C16:  MOVFF  105,205
02C1A:  MOVFF  104,204
02C1E:  MOVFF  203,20B
02C22:  MOVFF  202,20A
02C26:  MOVFF  201,209
02C2A:  MOVFF  200,208
02C2E:  MOVLW  01
02C30:  MOVWF  x0D
02C32:  MOVLW  B6
02C34:  MOVWF  x0C
02C36:  CLRF   x0F
02C38:  MOVLW  40
02C3A:  MOVWF  x0E
02C3C:  MOVLB  0
02C3E:  CALL   1710
.................... 
....................         // гӮ«гӮҰгғігӮҝгҒ®жӣҙж–°
....................         iv_data.used_counter += PACKET_SIZE;
02C42:  MOVLW  40
02C44:  MOVLB  1
02C46:  ADDWF  x36,F
02C48:  MOVLW  00
02C4A:  ADDWFC x37,F
02C4C:  MOVLW  00
02C4E:  ADDWFC x38,F
02C50:  MOVLW  00
02C52:  ADDWFC x39,F
....................         iv_data.uncopied_counter += PACKET_SIZE;
02C54:  MOVLW  40
02C56:  ADDWF  x3A,F
02C58:  MOVLW  00
02C5A:  ADDWFC x3B,F
02C5C:  MOVLW  00
02C5E:  ADDWFC x3C,F
02C60:  MOVLW  00
02C62:  ADDWFC x3D,F
.................... 
....................         currentPacketNum++;
02C64:  INCF   xF6,F
.................... 
....................         // иЁҲжё¬й–“йҡ”гҒ®гӮҰгӮ§гӮӨгғҲ (еҝ…иҰҒгҒ«еҝңгҒҳгҒҰиӘҝж•ҙ)
....................         delay_ms(1);
02C66:  MOVLW  01
02C68:  MOVLB  2
02C6A:  MOVWF  x1C
02C6C:  MOVLB  0
02C6E:  CALL   0996
02C72:  GOTO   2A48
....................     }
.................... 
....................     fprintf(PC, "End Temp Measurement\r\n");
02C76:  MOVLW  88
02C78:  MOVWF  FF6
02C7A:  MOVLW  04
02C7C:  MOVWF  FF7
02C7E:  MOVLW  00
02C80:  MOVWF  FF8
02C82:  CALL   0A16
02C86:  GOTO   2FAA (RETURN)
.................... }
.................... 
.................... #include "../core/logging/son_tmp_piclog.c"
.................... #include "son_tmp_piclog.h"
.................... #ifndef son_tmp_PICLOG_H
.................... #define son_tmp_PICLOG_H
.................... 
.................... #include <stdint.h>
.................... #include <string.h>
.................... 
.................... // ============================================================================
.................... // PICLOG е®ҡж•°е®ҡзҫ©
.................... // ============================================================================
.................... #define PICLOG_STARTUP     0x00
.................... #define PICLOG_PARAM_START 0x00
.................... #define PICLOG_PARAM_END   0xFF
.................... 
.................... #define PICLOG_PACKET_SIZE 6
.................... #define PICLOG_BLANK_SIZE  4
.................... 
.................... // ============================================================================
.................... // PICLOG гғҮгғјгӮҝж§ӢйҖ дҪ“ (6 Byte)
.................... // ============================================================================
.................... typedef union
.................... {
....................     struct
....................     {
....................         uint32_t time;       // 4 Byte: гӮҝгӮӨгғ гӮ№гӮҝгғігғ—
....................         uint8_t  function;   // 1 Byte: е®ҹиЎҢй–ўж•°гғ»гӮӨгғҷгғігғҲID
....................         uint8_t  parameter;  // 1 Byte: гғ‘гғ©гғЎгғјгӮҝгғ»зҠ¶ж…Ӣ
....................     } fields;
....................     uint8_t bytes[PICLOG_PACKET_SIZE];
.................... } PICLOG_t;
.................... 
.................... // ============================================================================
.................... // еӨ–йғЁе…¬й–Ӣй–ўж•°гғ—гғӯгғҲгӮҝгӮӨгғ—
.................... // ============================================================================
.................... 
.................... // гғӯгӮ°гӮ’дҪңжҲҗгҒ—гҖҒгғ•гғ©гғғгӮ·гғҘгғЎгғўгғӘгҒ«жӣёгҒҚиҫјгӮҖ
.................... // function: гӮӨгғҷгғігғҲID
.................... // parameter: зҠ¶ж…Ӣгғ‘гғ©гғЎгғјгӮҝ
.................... void piclog_make(uint8_t function, uint8_t parameter);
.................... 
.................... #endif // son_tmp_PICLOG_H
.................... 
.................... 
.................... // еҝ…иҰҒгҒӘеӨ–йғЁгғўгӮёгғҘгғјгғ«гҒ®гӮӨгғігӮҜгғ«гғјгғү
.................... #include "../../hardware/mcu/timer.h"
.................... #ifndef TIMER_H
.................... #define TIMER_H
.................... 
.................... #include <stdint.h>
.................... 
.................... // __________ values _________
.................... 
.................... // гғ‘гӮұгғғгғҲгғҳгғғгғҖгғјгҒ® timestamp гҒ§дҪҝз”ЁгҒҷгӮӢгҒҹгӮҒгҒ®з§’гӮ«гӮҰгғігӮҝ
.................... extern volatile uint32_t sec;
.................... 
.................... 
.................... // __________ functions _________
.................... uint32_t get_current_sec();
.................... void set_current_sec(uint32_t new_sec);
.................... void setup_timer();
.................... 
.................... #INT_TIMER1
.................... void TIMER1_isr();
.................... 
.................... #endif
.................... 
.................... #include "../storage/son_tmp_flash.h"
.................... #ifndef son_tmp_FLASH_H
.................... #define son_tmp_FLASH_H
.................... 
.................... #include <stdint.h>
.................... #include <string.h>
.................... #include "../../system/son_tmp_config.h"
.................... 
.................... // е…ұйҖҡгғ©гӮӨгғ–гғ©гғӘгҒ®гғҳгғғгғҖ (MissionIDгҒӘгҒ©гҒ®е®ҡж•°з”Ё)
.................... // #include "../../../lib/communication/typedef_content.h"
.................... // #include "../../../lib/communication/value_status.h"
.................... 
.................... // ============================================================================
.................... // гғЎгғўгғӘгғһгғғгғ—е®ҡзҫ© (MT25QL128ABA: 16MB)
.................... // ============================================================================
.................... #define MISF_START 0x00000000
.................... #define MISF_END   0x00FFFFFF
.................... 
.................... #define SECTOR_64K_BYTE  0x10000
.................... 
.................... #define MISF_CIGS_DATA_TABLE_SIZE 64
.................... 
.................... #define MISF_CIGS_DATA_TABLE_START 0x00000000
.................... #define MISF_CIGS_DATA_TABLE_END   0x00000FFF
.................... #define MISF_CIGS_PICLOG_START     0x00010000
.................... #define MISF_CIGS_PICLOG_END       0x00140FFF
.................... #define MISF_CIGS_ENVIRO_START     0x00281000
.................... #define MISF_CIGS_ENVIRO_END       0x00320FFF
.................... #define MISF_CIGS_IV_HEADER_START  0x00721000
.................... #define MISF_CIGS_IV_HEADER_END    0x007C0FFF
.................... #define MISF_CIGS_IV_DATA_START    0x007C1000
.................... #define MISF_CIGS_IV_DATA_END      0x00D00000
.................... 
.................... // ============================================================================
.................... // гғҮгғјгӮҝж§ӢйҖ дҪ“е®ҡзҫ©
.................... // ============================================================================
.................... 
.................... // гғ•гғ©гғғгӮ·гғҘгӮ«гӮҰгғігӮҝж§ӢйҖ дҪ“ (11 Bytes)
.................... typedef struct
.................... {
....................     uint8_t   mission_id;
....................     uint32_t  used_counter;
....................     uint32_t  uncopied_counter;
....................     uint8_t   reserve_counter1;
....................     uint8_t   reserve_counter2;
.................... } Flash_t;
.................... 
.................... // гғҶгғјгғ–гғ«дҝқеӯҳз”ЁгҒ®64Byteгғ‘гӮұгғғгғҲж§ӢйҖ дҪ“
.................... typedef union
.................... {
....................     struct
....................     {
....................         union
....................         {
....................             struct
....................             {
....................                 Flash_t piclog;
....................                 Flash_t environment;
....................                 Flash_t iv_header;
....................                 Flash_t iv_data;
....................             } logdata;
....................             uint8_t reserve[63];
....................         } payload;
....................         uint8_t crc; // 1гғҗгӮӨгғҲгҒ®CRC
....................     } packet;
....................     uint8_t bytes[64];
.................... } FlashData_t;
.................... 
.................... typedef struct
.................... {
....................     uint32_t start_address;
....................     uint32_t end_address;
.................... } MisfStatusStruct;
.................... 
.................... typedef struct
.................... {
....................     uint32_t start_address;
....................     uint32_t size;
.................... } MisfWriteStruct;
.................... 
.................... // ============================================================================
.................... // гӮ°гғӯгғјгғҗгғ«еӨүж•° (е®ЈиЁҖгҒ®гҒҝгҖҒе®ҹдҪ“гҒҜ.cгғ•гӮЎгӮӨгғ«гҒ«иЁҳиҝ°)
.................... // ============================================================================
.................... extern Flash_t piclog_data;
.................... extern Flash_t environment_data;
.................... extern Flash_t iv_header;
.................... extern Flash_t iv_data;
.................... 
.................... // ============================================================================
.................... // еӨ–йғЁе…¬й–Ӣй–ўж•°гғ—гғӯгғҲгӮҝгӮӨгғ—
.................... // ============================================================================
.................... void misf_init(void);
.................... FlashData_t make_flash_data_table(void);
.................... void write_misf_address_area(void);
.................... MisfStatusStruct get_misf_status_struct(uint8_t mission_id);
.................... MisfWriteStruct get_misf_write_struct(uint8_t mission_id);
.................... void print_flash_status(void);
.................... 
.................... #endif // son_tmp_FLASH_H
.................... 
.................... #include "../../../lib/device/mt25q.h"
.................... #ifndef MT25Q_H
.................... #define MT25Q_H
.................... 
.................... // =========
.................... //#define MT25Q_DEBUG
.................... // =========
.................... 
.................... 
.................... #define FLASH_STREAM0 MIS_FM_STREAM     // <- Align the names to `config.h` Stream name
.................... #define FLASH_STREAM1 SMF_STREAM
.................... #define FLASH_STREAM2 SMF_STREAM // dont use
.................... #define FLASH_STREAM3 SMF_STREAM // dont use
.................... 
.................... typedef enum spi_stream{
....................     SPI_0,
....................     SPI_1,
....................     SPI_2,
....................     SPI_3,
.................... }SpiStreamId;
.................... 
.................... #define MT25QL128ABA 0x00     //Mission Flash
.................... #define MT25QL01GBBB 0x01     //SMF,CF
.................... typedef struct select_stream_to_flash{
....................     SpiStreamId spi_stream_id;
....................     unsigned int8 flash_model;
....................     int16 cs_pin;
.................... }Flash;
.................... 
.................... 
.................... Flash mis_fm = {SPI_0, MT25QL128ABA, MIS_FM_CS};
.................... Flash smf = {SPI_1, MT25QL01GBBB, SMF_CS};
.................... 
.................... 
.................... 
.................... // ===================== Function List =====================
.................... // Public Functions
.................... 
.................... int1 is_connect(Flash flash_stream);
.................... 
.................... void write_data_bytes(Flash flash_stream, unsigned int32 write_start_address, int8 *write_data, unsigned int16 write_amount);      
.................... 
.................... void read_data_bytes(Flash flash_stream, unsigned int32 read_start_address, int8 *read_data, unsigned int32 read_amount);  
.................... 
.................... void sector_erase(Flash flash_stream, unsigned int32 sector_address);
.................... 
.................... void subsector_32kByte_erase(Flash flash_stream, unsigned int32 subsector_address);  
....................                                
.................... void subsector_4kByte_erase(Flash flash_stream, unsigned int32 subsector_address);      
.................... 
.................... //Private Functions
....................  
.................... void flash_setting(Flash flash_stream);
....................  
.................... int8 status_register(Flash flash_stream);
....................  
.................... int8 read_id(Flash flash_stream);
....................  
.................... int8 read_data_byte(Flash flash_stream, unsigned int32 read_address);                                               
....................  
.................... void write_data_byte(Flash flash_stream, unsigned int32 write_address,int8 write_data);                             
....................         //
.................... 
.................... 
.................... // ===================== Flash Commands =====================
.................... #define CMD_READ_ID                     0x9F
.................... #define CMD_READ_STATUS_REGISTER        0x05
.................... #define CMD_READ                        0x03//for MT25QL128ABA
.................... #define CMD_4BYTE_READ                  0x13//for MT25QL01GBBB
.................... #define CMD_WRITE_ENABLE                0x06
.................... #define CMD_PAGE_PROGRAM                0x02//for MT25QL128ABA
.................... #define CMD_4BYTE_PAGE_PROGRAM          0x12//for MT25QL01GBBB
.................... #define CMD_SUBSECTOR_4KB_ERASE         0x20//for MT25QL128ABA
.................... #define CMD_4BYTE_SUBSECTOR_4KB_ERASE   0x21//for MT25QL01GBBB
.................... #define CMD_SUBSECTOR_32KB_ERASE        0x52//for MT25QL128ABA
.................... #define CMD_4BYTE_SUBSECTOR_32KB_ERASE  0x5C//for MT25QL01GBBB
.................... #define CMD_SECTOR_ERASE                0xD8//for MT25QL128ABA
.................... #define CMD_4BYTE_SECTOR_ERASE          0xDC//for MT25QL01GBBB
.................... 
.................... // ====================== Value List =====================
.................... #define MANUFACTURER_ID_MICRON 0x20 // Manufacturer ID for Micron flash
.................... #define READ_ID_DATASIZE 20 // 20 bytes for read ID data
.................... 
.................... 
.................... // ====================== Data Structures =====================
.................... typedef union
.................... {
....................     unsigned int8 bytes[READ_ID_DATASIZE]; // 20 bytes for read ID
....................     struct {
....................         unsigned int8 manufacturer_id; // 1 byte
....................         unsigned int8 memory_type;     // 1 byte
....................         unsigned int8 capacity;        // 1 byte
....................         unsigned int8 reserved;       // 1 byte
....................     } fields;
.................... }READ_ID_DATA;
.................... 
.................... 
.................... #endif
.................... 
.................... 
.................... 
.................... 
.................... // ============================================================================
.................... // гӮ°гғӯгғјгғҗгғ«еӨүж•°
.................... // ============================================================================
.................... // 64Byteеўғз•ҢеҗҲгӮҸгҒӣгҒ®гҒҹгӮҒгҒ®4Byteгғ‘гғҮгӮЈгғігӮ°з”ЁгғҮгғјгӮҝ
.................... uint8_t PICLOG_BLANK_DATA[PICLOG_BLANK_SIZE] = {0x00, 0x00, 0x00, 0x00};
.................... 
.................... // ============================================================================
.................... // гғӯгӮ°дҪңжҲҗгҒЁгғ•гғ©гғғгӮ·гғҘдҝқеӯҳеҮҰзҗҶ
.................... // ============================================================================
.................... void piclog_make(uint8_t function, uint8_t parameter)
.................... {
....................     PICLOG_t piclog;
....................     memset(piclog.bytes, 0, PICLOG_PACKET_SIZE);
*
01F8A:  MOVLW  01
01F8C:  MOVWF  FEA
01F8E:  MOVLW  66
01F90:  MOVWF  FE9
01F92:  CLRF   00
01F94:  CLRF   02
01F96:  MOVLW  06
01F98:  MOVWF  01
01F9A:  CALL   0F96
.................... 
....................     // гғҮгғјгӮҝгҒ®иЁӯе®ҡ
....................     piclog.fields.time = get_current_sec();
01F9E:  CALL   1382
01FA2:  MOVFF  03,169
01FA6:  MOVFF  02,168
01FAA:  MOVFF  01,167
01FAE:  MOVFF  00,166
....................     piclog.fields.function = function;
01FB2:  MOVFF  164,16A
....................     piclog.fields.parameter = parameter;
01FB6:  MOVFF  165,16B
.................... 
....................     // UARTгҒёгғӯгӮ°гӮ’еҮәеҠӣ
....................     fprintf(PC, "\t[PICLOG] : ");
01FBA:  MOVLW  A0
01FBC:  MOVWF  FF6
01FBE:  MOVLW  04
01FC0:  MOVWF  FF7
01FC2:  MOVLW  00
01FC4:  MOVWF  FF8
01FC6:  CALL   0A16
....................     for (uint8_t i = 0; i < PICLOG_PACKET_SIZE; i++)
01FCA:  MOVLB  1
01FCC:  CLRF   x6C
01FCE:  MOVLB  0
01FD0:  MOVLB  1
01FD2:  MOVF   x6C,W
01FD4:  SUBLW  05
01FD6:  BTFSC  FD8.0
01FD8:  BRA    1FE0
01FDA:  MOVLB  0
01FDC:  GOTO   201A
01FE0:  MOVLB  0
....................     {
....................         fprintf(PC, "%02X ", piclog.bytes[i]);
01FE2:  CLRF   03
01FE4:  MOVLB  1
01FE6:  MOVF   x6C,W
01FE8:  ADDLW  66
01FEA:  MOVWF  FE9
01FEC:  MOVLW  01
01FEE:  ADDWFC 03,W
01FF0:  MOVWF  FEA
01FF2:  MOVFF  FEF,171
01FF6:  MOVFF  171,17D
01FFA:  MOVLW  37
01FFC:  MOVWF  x7E
01FFE:  MOVLB  0
02000:  CALL   1394
02004:  MOVLW  20
02006:  MOVLB  2
02008:  MOVWF  x08
0200A:  MOVLB  0
0200C:  CALL   09C4
02010:  MOVLB  1
02012:  INCF   x6C,F
02014:  MOVLB  0
02016:  GOTO   1FD0
....................     }
....................     fprintf(PC, "\r\n");
0201A:  MOVLW  0D
0201C:  MOVLB  2
0201E:  MOVWF  x08
02020:  MOVLB  0
02022:  CALL   09C4
02026:  MOVLW  0A
02028:  MOVLB  2
0202A:  MOVWF  x08
0202C:  MOVLB  0
0202E:  CALL   09C4
.................... 
....................     // 1. FlashгҒёжӣёгҒҚиҫјгҒҝ (6 Byte)
....................     uint32_t write_address = MISF_CIGS_PICLOG_START + piclog_data.used_counter;
02032:  MOVLB  1
02034:  MOVF   x15,W
02036:  MOVWF  x6D
02038:  MOVF   x16,W
0203A:  MOVWF  x6E
0203C:  MOVLW  01
0203E:  ADDWF  x17,W
02040:  MOVWF  x6F
02042:  MOVLW  00
02044:  ADDWFC x18,W
02046:  MOVWF  x70
....................     write_data_bytes(mis_fm, write_address, piclog.bytes, PICLOG_PACKET_SIZE);
02048:  MOVFF  107,207
0204C:  MOVFF  106,206
02050:  MOVFF  105,205
02054:  MOVFF  104,204
02058:  MOVFF  170,20B
0205C:  MOVFF  16F,20A
02060:  MOVFF  16E,209
02064:  MOVFF  16D,208
02068:  MOVLW  01
0206A:  MOVLB  2
0206C:  MOVWF  x0D
0206E:  MOVLW  66
02070:  MOVWF  x0C
02072:  CLRF   x0F
02074:  MOVLW  06
02076:  MOVWF  x0E
02078:  MOVLB  0
0207A:  CALL   1710
.................... 
....................     // гӮ«гӮҰгғігӮҝгҒ®жӣҙж–°
....................     piclog_data.used_counter += PICLOG_PACKET_SIZE;
0207E:  MOVLW  06
02080:  MOVLB  1
02082:  ADDWF  x15,F
02084:  MOVLW  00
02086:  ADDWFC x16,F
02088:  MOVLW  00
0208A:  ADDWFC x17,F
0208C:  MOVLW  00
0208E:  ADDWFC x18,F
....................     piclog_data.uncopied_counter += PICLOG_PACKET_SIZE;
02090:  MOVLW  06
02092:  ADDWF  x19,F
02094:  MOVLW  00
02096:  ADDWFC x1A,F
02098:  MOVLW  00
0209A:  ADDWFC x1B,F
0209C:  MOVLW  00
0209E:  ADDWFC x1C,F
....................     piclog_data.reserve_counter1 += PICLOG_PACKET_SIZE;
020A0:  MOVLW  06
020A2:  ADDWF  x1D,F
.................... 
....................     // 2. гғҡгғјгӮёеўғз•Ң(64Byte)гҒ®з®ЎзҗҶ
....................     // ж¬ЎгҒ«6ByteгӮ’жӣёгҒҚиҫјгӮҖгҒЁ64ByteгӮ’и¶…гҒҲгӮӢе ҙеҗҲ(зҸҫеңЁ60ByteжӣёгҒҚиҫјгҒҝжёҲгҒҝгҒ®е ҙеҗҲ)гҒҜгҖҒж®ӢгӮҠгҒ®4ByteгӮ’гӮјгғӯгҒ§еҹӢгӮҒгӮӢ
....................     if (piclog_data.reserve_counter1 + PICLOG_PACKET_SIZE >= PACKET_SIZE)
020A4:  MOVLW  06
020A6:  ADDWF  x1D,W
020A8:  SUBLW  3F
020AA:  BTFSS  FD8.0
020AC:  BRA    20B4
020AE:  MOVLB  0
020B0:  GOTO   2128
020B4:  MOVLB  0
....................     {
....................         write_address = MISF_CIGS_PICLOG_START + piclog_data.used_counter;
020B6:  MOVLB  1
020B8:  MOVF   x15,W
020BA:  MOVWF  x6D
020BC:  MOVF   x16,W
020BE:  MOVWF  x6E
020C0:  MOVLW  01
020C2:  ADDWF  x17,W
020C4:  MOVWF  x6F
020C6:  MOVLW  00
020C8:  ADDWFC x18,W
020CA:  MOVWF  x70
....................         write_data_bytes(mis_fm, write_address, PICLOG_BLANK_DATA, PICLOG_BLANK_SIZE);
020CC:  MOVFF  107,207
020D0:  MOVFF  106,206
020D4:  MOVFF  105,205
020D8:  MOVFF  104,204
020DC:  MOVFF  170,20B
020E0:  MOVFF  16F,20A
020E4:  MOVFF  16E,209
020E8:  MOVFF  16D,208
020EC:  MOVLW  01
020EE:  MOVLB  2
020F0:  MOVWF  x0D
020F2:  MOVLW  43
020F4:  MOVWF  x0C
020F6:  CLRF   x0F
020F8:  MOVLW  04
020FA:  MOVWF  x0E
020FC:  MOVLB  0
020FE:  CALL   1710
.................... 
....................         // гғ‘гғҮгӮЈгғігӮ°еҲҶгҒ®гӮ«гӮҰгғігӮҝжӣҙж–°
....................         piclog_data.used_counter += PICLOG_BLANK_SIZE;
02102:  MOVLW  04
02104:  MOVLB  1
02106:  ADDWF  x15,F
02108:  MOVLW  00
0210A:  ADDWFC x16,F
0210C:  MOVLW  00
0210E:  ADDWFC x17,F
02110:  MOVLW  00
02112:  ADDWFC x18,F
....................         piclog_data.uncopied_counter += PICLOG_BLANK_SIZE;
02114:  MOVLW  04
02116:  ADDWF  x19,F
02118:  MOVLW  00
0211A:  ADDWFC x1A,F
0211C:  MOVLW  00
0211E:  ADDWFC x1B,F
02120:  MOVLW  00
02122:  ADDWFC x1C,F
....................         piclog_data.reserve_counter1 = 0; // ж¬ЎгҒ®64Byteгғ–гғӯгғғгӮҜгҒ®гҒҹгӮҒгҒ«гғӘгӮ»гғғгғҲ
02124:  CLRF   x1D
02126:  MOVLB  0
....................     }
.................... 
....................     // гғ•гғ©гғғгӮ·гғҘгҒ®гӮўгғүгғ¬гӮ№з®ЎзҗҶй ҳеҹҹгӮ’жӣҙж–°
....................     write_misf_address_area();
02128:  CALL   1F14
0212C:  RETURN 0
.................... }
.................... 
.................... #include "../core/storage/son_tmp_smf.c"
.................... #include "son_tmp_smf.h"
.................... #ifndef son_tmp_SMF_H
.................... #define son_tmp_SMF_H
.................... 
.................... #include <stdint.h>
.................... ///////////////////////////////////////////////////////////////////////////
.................... ////                                                                   ////
.................... ////                           stdint.h                                ////
.................... ////                                                                   ////
.................... //// Standard integer definitions.                                     ////
.................... ////                                                                   ////
.................... ///////////////////////////////////////////////////////////////////////////
.................... ////        (C) Copyright 1996,2008 Custom Computer Services           ////
.................... //// This source code may only be used by licensed users of the CCS C  ////
.................... //// compiler.  This source code may only be distributed to other      ////
.................... //// licensed users of the CCS C compiler.  No other use, reproduction ////
.................... //// or distribution is permitted without written permission.          ////
.................... //// Derivative programs created using this software in object code    ////
.................... //// form are not restricted in any way.                               ////
.................... ///////////////////////////////////////////////////////////////////////////
.................... 
.................... #ifndef _STDINT
.................... 
.................... #define _STDINT
.................... 
.................... //////////// exact width
.................... 
.................... typedef signed int8 int8_t;
.................... typedef unsigned int8 uint8_t;
.................... typedef signed int16 int16_t;
.................... typedef unsigned int16 uint16_t;
.................... typedef signed int32 int32_t;
.................... typedef unsigned int32 uint32_t;
.................... 
.................... #if defined(__PCD__)
.................... //typedef signed int24 int24_t;
.................... //typedef unsigned int24 uint24_t;
.................... typedef signed int64 int64_t;
.................... typedef unsigned int64 uint64_t;
.................... #endif
.................... 
.................... #define INT8_MAX  (127)
.................... #define INT8_MIN  (-128)
.................... #define UINT8_MAX (255)
.................... 
.................... #define INT16_MAX  (32767)
.................... #define INT16_MIN  (-32768)
.................... #define UINT16_MAX (65535)
.................... 
.................... #define INT32_MAX  (2147483647)
.................... #define INT32_MIN  (-2147483648)
.................... #define UINT32_MAX (4294967295)
.................... 
.................... #if defined(__PCD__)
.................... //#define INT24_MAX  (8388607)
.................... //#define INT24_MIN  (-8388608)
.................... //#define UINT24_MAX (16777215)
.................... 
.................... #define INT64_MAX  (9223372036854775807)
.................... #define INT64_MIN  (-9223372036854775808)
.................... #define UINT64_MAX (18446744073709551615)
.................... #endif
.................... 
.................... ///////// minimum width
.................... 
.................... typedef signed int8 int_least8_t;
.................... typedef unsigned int8 uint_least8_t;
.................... typedef signed int16 int_least16_t;
.................... typedef unsigned int16 uint_least16_t;
.................... typedef signed int32 int_least32_t;
.................... typedef unsigned int32 uint_least32_t;
.................... 
.................... #if defined(__PCD__)
.................... //typedef signed int24 int_least24_t;
.................... //typedef unsigned int24 uint_least24_t;
.................... typedef signed int64 int_least64_t;
.................... typedef unsigned int64 uint_least64_t;
.................... #endif
.................... 
.................... #define INT_LEAST8_MAX  (127)
.................... #define INT_LEAST8_MIN  (-128)
.................... #define UINT_LEAST8_MAX (255)
.................... 
.................... #define INT_LEAST16_MAX  (32767)
.................... #define INT_LEAST16_MIN  (-32768)
.................... #define UINT_LEAST16_MAX (65535)
.................... 
.................... #define INT_LEAST32_MAX  (2147483647)
.................... #define INT_LEAST32_MIN  (-2147483648)
.................... #define UINT_LEAST32_MAX (4294967295)
.................... 
.................... #if defined(__PCD__)
.................... //#define INT_LEAST24_MAX  (8388607)
.................... //#define INT_LEAST24_MIN  (-8388608)
.................... //#define UINT_LEAST24_MAX (16777215)
.................... 
.................... #define INT_LEAST64_MAX  (9223372036854775807)
.................... #define INT_LEAST64_MIN  (-9223372036854775808)
.................... #define UINT_LEAST64_MAX (18446744073709551615)
.................... #endif
.................... 
.................... ///////// fastest width
.................... 
.................... #if defined(__PCD__)
.................... typedef signed int16 int_fast8_t;
.................... typedef unsigned int16 uint_fast8_t;
.................... #define INT_FAST8_MAX  (32767)
.................... #define INT_FAST8_MIN  (-32768)
.................... #define UINT_FAST8_MAX (65535)
.................... typedef signed int16 int_fast16_t;
.................... typedef unsigned int16 uint_fast16_t;
.................... //typedef signed int24 int_fast24_t;
.................... //typedef unsigned int24 uint_fast24_t;
.................... typedef signed int64 int_fast64_t;
.................... typedef unsigned int64 uint_fast64_t;
.................... #else
.................... typedef signed int8 int_fast8_t;
.................... typedef unsigned int8 uint_fast8_t;
.................... #define INT_FAST8_MAX  (127)
.................... #define INT_FAST8_MIN  (-128)
.................... #define UINT_FAST8_MAX (255)
.................... typedef signed int16 int_fast16_t;
.................... typedef unsigned int16 uint_fast16_t;
.................... #endif
.................... 
.................... typedef signed int32 int_fast32_t;
.................... typedef unsigned int32 uint_fast32_t;
.................... 
.................... #define INT_FAST16_MAX  (32767)
.................... #define INT_FAST16_MIN  (-32768)
.................... #define UINT_FAST16_MAX (65535)
.................... 
.................... #define INT_FAST32_MAX  (2147483647)
.................... #define INT_FAST32_MIN  (-2147483648)
.................... #define UINT_FAST32_MAX (4294967295)
.................... 
.................... #if defined(__PCD__)
.................... //#define INT_FAST24_MAX  (8388607)
.................... //#define INT_FAST24_MIN  (-8388608)
.................... //#define UINT_FAST24_MAX (16777215)
.................... 
.................... #define INT_FAST64_MAX  (9223372036854775807)
.................... #define INT_FAST64_MIN  (-9223372036854775808)
.................... #define UINT_FAST64_MAX (18446744073709551615)
.................... #endif
.................... 
.................... //////////// big enough to hold pointers (OPTIONAL)
.................... 
.................... #if defined(__PCD__)
....................    typedef unsigned int32 uintptr_t;
....................    typedef signed int32 intptr_t;
.................... #else
....................    typedef unsigned int16 uintptr_t;
....................    typedef signed int16 intptr_t;
.................... #endif
.................... 
.................... #define INT8_C(val) ((int8_t)val)
.................... #define UINT8_C(val) ((uint8_t)val)
.................... #define INT16_C(val) ((int16_t)val)
.................... #define UINT16_C(val) ((uint16_t)val)
.................... #define INT32_C(val) ((int32_t)val)
.................... #define UINT32_C(val) ((uint32_t)val)
.................... 
.................... #if defined(__PCD__)
.................... #define INT64_C(val) ((int64_t)val)
.................... #define UINT64_C(val) ((uint64_t)val)
.................... #endif
.................... 
.................... /// TODO:
.................... /// INTPTRN_MIN INTPTRN_MAX UINTPTRN_MAX
.................... 
.................... 
.................... /////////// greatest width (OPTIONAL)
.................... 
.................... #ifdef __PCD__
....................    typedef signed int64 intmax_t;
....................    typedef unsigned int64 uintmax_t;
....................    
....................    #define INTMAXN_MAX  (9223372036854775807)
....................    #define INTMAXN_MIN  (-9223372036854775808)
....................    #define UINTMAXN_MAX (18446744073709551615)
....................    
....................    #define INTMAX_C(value) ((signed int64)val)
....................    #define UINTMAX_C(value) ((unsigned int64)val)
.................... #else
....................    typedef signed int32 intmax_t;
....................    typedef unsigned int32 uintmax_t;
....................    
....................    #define INTMAXN_MAX  (2147483647)
....................    #define INTMAXN_MIN  (-2147483648)
....................    #define UINTMAXN_MAX (4294967295)
....................    
....................    #define INTMAX_C(value) ((signed int32)val)
....................    #define UINTMAX_C(value) ((unsigned int32)val)
.................... #endif
.................... 
.................... 
.................... #endif
.................... 
.................... 
.................... #include "../../system/son_tmp_config.h"
.................... #ifndef son_tmp_CONFIG_H
.................... #define son_tmp_CONFIG_H
.................... 
.................... #define SELF_DEVICE_ID CIGS_PIC
.................... 
.................... #include <18F67J94.h>
.................... #opt 0 // 0 = no optimization
.................... 
.................... #use delay(crystal=16MHz)
.................... #fuses HS, NOWDT, NOBROWNOUT, NOPROTECT
.................... 
.................... #define PIC18
.................... 
.................... #ifdef PIC18
....................     // ==========================================
....................     // 1. гғҸгғјгғүгӮҰгӮ§гӮўж§ӢжҲҗгҒЁгғ”гғігӮўгӮөгӮӨгғі
....................     // ==========================================
.................... 
....................     #define PIN_LDO_EN          PIN_E1
....................     #define PIN_VREF_EN         PIN_E0
....................     #define PIN_LED1            PIN_A5
....................     #define PIN_LED2            PIN_A1
.................... 
....................     #define PIN_SW_DIO1         PIN_C1
....................     #define PIN_SW_DIO0         PIN_C2
.................... 
....................     // SPI Chip Select (BOSSгғҳгғғгғҖеҗҚз§°гҒ«йҒ©еҗҲ)
....................     #define MIS_FM_CS           PIN_B1
....................     #define SMF_CS              PIN_D4
....................     #define PIN_CS_ADC          PIN_B3
.................... 
.................... // ------------------------------------------
....................     // UART йҖҡдҝЎиЁӯе®ҡ (еј·еҲ¶гӮҪгғ•гғҲгӮҰгӮ§гӮўеҲ¶еҫЎ)
....................     // ------------------------------------------
....................     #use rs232(baud=9600, parity=N, xmit=PIN_G0, bits=8, stream=PC, FORCE_SW, ERRORS)
....................     #use rs232(baud=9600, parity=N, xmit=PIN_D1, rcv=PIN_D0, bits=8, stream=BOSS, FORCE_SW, ERRORS)
.................... 
....................     // ------------------------------------------
....................     // SPI йҖҡдҝЎиЁӯе®ҡ (еј·еҲ¶гӮҪгғ•гғҲгӮҰгӮ§гӮўеҲ¶еҫЎ)
....................     // ------------------------------------------
....................     #use spi(MASTER, BAUD=1000000, MODE=0, BITS=8, DI=PIN_B5, DO=PIN_B4, CLK=PIN_B2, stream=MIS_FM_STREAM, FORCE_SW)
....................     #use spi(MASTER, BAUD=1000000, MODE=0, BITS=8, DI=PIN_D6, DO=PIN_D7, CLK=PIN_D5, stream=SMF_STREAM, FORCE_SW)
.................... 
.................... #endif
.................... 
.................... // ==========================================
.................... // 2. гӮ·гӮ№гғҶгғ гӮ·гғјгӮұгғігӮ№ гӮігғһгғігғүе®ҡзҫ©
.................... // ==========================================
.................... #define CMD_MISSION_START       0x10
.................... #define RES_MISSION_DONE        0x11
.................... #define CMD_SMF_PREPARE         0x20
.................... #define REQ_SMF_COPY            0x21
.................... #define CMD_SMF_PERMIT          0x22
.................... #define REQ_POWER_OFF           0x30
.................... 
.................... // ==========================================
.................... // 3. гғҮгғјгӮҝгғ•гӮ©гғјгғһгғғгғҲгғ»гғҗгғғгғ•гӮЎе®ҡзҫ©
.................... // ==========================================
.................... #define PACKET_SIZE             64
.................... #define FLASH_PAGE_SIZE         256
.................... #define PACKETS_PER_PAGE        4
.................... #define SMF_TRANSFER_PACKETS    15
.................... 
.................... // гғҳгғғгғҖгғјж§ӢйҖ дҪ“ (8Byte)
.................... typedef struct
.................... {
....................     unsigned int32 timestamp;      // 4 Byte
....................     unsigned int8  mode : 3;       // 3 bit
....................     unsigned int8  channel : 1;    // 1 bit
....................     unsigned int8  samplingRate : 4; // 4 bit
....................     unsigned int16 dataCount;      // 12bitгҒ§гҒҜгҒӘгҒҸ16bit(2Byte)гҒ§зўәдҝқгҒ—гӮЁгғ©гғјгӮ’еӣһйҒҝ
....................     unsigned int8  zeroFill;       // 1 Byte (еҗҲиЁҲ8ByteгҒ«гҒҷгӮӢгҒҹгӮҒ)
.................... } PacketHeader;
.................... 
.................... typedef struct
.................... {
....................     PacketHeader header;           // 8 Byte
....................     unsigned int8 packetNum;       // 1 Byte
....................     unsigned int16 adcData[27];    // 54 Byte
....................     unsigned int8 crc8;            // 1 Byte
.................... } FirstPacket;
.................... 
.................... typedef struct
.................... {
....................     unsigned int8 packetNum;       // 1 Byte
....................     unsigned int16 adcData[31];    // 62 Byte
....................     unsigned int8 crc8;            // 1 Byte
.................... } SubsequentPacket;
.................... 
.................... typedef union
.................... {
....................     unsigned int8 raw[PACKET_SIZE];
....................     FirstPacket first;
....................     SubsequentPacket sub;
.................... } PacketBuffer;
.................... 
.................... #endif // son_tmp_CONFIG_H
.................... 
.................... 
.................... // ============================================================================
.................... // еӨ–йғЁе…¬й–Ӣй–ўж•°гғ—гғӯгғҲгӮҝгӮӨгғ—
.................... // ============================================================================
.................... 
.................... // SMFгҒёгҒ®и»ўйҖҒжә–еӮҷпјҲгӮўгғүгғ¬гӮ№гҒЁгӮөгӮӨгӮәгҒ®иЁҲз®—пјү
.................... void cigs_smf_prepare(void);
.................... 
.................... // MIS_FMгҒӢгӮүгғҮгғјгӮҝгӮ’иӘӯгҒҝеҮәгҒ—гҖҒSMF(CPLD)гҒёSPIйҖҒдҝЎ
.................... void cigs_smf_copy(void);
.................... 
.................... // и»ўйҖҒе®ҢдәҶгӮ’зўәиӘҚгҒ—гҖҒгғ•гғ©гғғгӮ·гғҘгҒ®гӮ«гӮҰгғігӮҝгӮ’жӣҙж–°
.................... void cigs_smf_permit(void);
.................... 
.................... #endif // son_tmp_SMF_H
.................... 
.................... #include "son_tmp_flash.h"
.................... #ifndef son_tmp_FLASH_H
.................... #define son_tmp_FLASH_H
.................... 
.................... #include <stdint.h>
.................... #include <string.h>
.................... #include "../../system/son_tmp_config.h"
.................... 
.................... // е…ұйҖҡгғ©гӮӨгғ–гғ©гғӘгҒ®гғҳгғғгғҖ (MissionIDгҒӘгҒ©гҒ®е®ҡж•°з”Ё)
.................... // #include "../../../lib/communication/typedef_content.h"
.................... // #include "../../../lib/communication/value_status.h"
.................... 
.................... // ============================================================================
.................... // гғЎгғўгғӘгғһгғғгғ—е®ҡзҫ© (MT25QL128ABA: 16MB)
.................... // ============================================================================
.................... #define MISF_START 0x00000000
.................... #define MISF_END   0x00FFFFFF
.................... 
.................... #define SECTOR_64K_BYTE  0x10000
.................... 
.................... #define MISF_CIGS_DATA_TABLE_SIZE 64
.................... 
.................... #define MISF_CIGS_DATA_TABLE_START 0x00000000
.................... #define MISF_CIGS_DATA_TABLE_END   0x00000FFF
.................... #define MISF_CIGS_PICLOG_START     0x00010000
.................... #define MISF_CIGS_PICLOG_END       0x00140FFF
.................... #define MISF_CIGS_ENVIRO_START     0x00281000
.................... #define MISF_CIGS_ENVIRO_END       0x00320FFF
.................... #define MISF_CIGS_IV_HEADER_START  0x00721000
.................... #define MISF_CIGS_IV_HEADER_END    0x007C0FFF
.................... #define MISF_CIGS_IV_DATA_START    0x007C1000
.................... #define MISF_CIGS_IV_DATA_END      0x00D00000
.................... 
.................... // ============================================================================
.................... // гғҮгғјгӮҝж§ӢйҖ дҪ“е®ҡзҫ©
.................... // ============================================================================
.................... 
.................... // гғ•гғ©гғғгӮ·гғҘгӮ«гӮҰгғігӮҝж§ӢйҖ дҪ“ (11 Bytes)
.................... typedef struct
.................... {
....................     uint8_t   mission_id;
....................     uint32_t  used_counter;
....................     uint32_t  uncopied_counter;
....................     uint8_t   reserve_counter1;
....................     uint8_t   reserve_counter2;
.................... } Flash_t;
.................... 
.................... // гғҶгғјгғ–гғ«дҝқеӯҳз”ЁгҒ®64Byteгғ‘гӮұгғғгғҲж§ӢйҖ дҪ“
.................... typedef union
.................... {
....................     struct
....................     {
....................         union
....................         {
....................             struct
....................             {
....................                 Flash_t piclog;
....................                 Flash_t environment;
....................                 Flash_t iv_header;
....................                 Flash_t iv_data;
....................             } logdata;
....................             uint8_t reserve[63];
....................         } payload;
....................         uint8_t crc; // 1гғҗгӮӨгғҲгҒ®CRC
....................     } packet;
....................     uint8_t bytes[64];
.................... } FlashData_t;
.................... 
.................... typedef struct
.................... {
....................     uint32_t start_address;
....................     uint32_t end_address;
.................... } MisfStatusStruct;
.................... 
.................... typedef struct
.................... {
....................     uint32_t start_address;
....................     uint32_t size;
.................... } MisfWriteStruct;
.................... 
.................... // ============================================================================
.................... // гӮ°гғӯгғјгғҗгғ«еӨүж•° (е®ЈиЁҖгҒ®гҒҝгҖҒе®ҹдҪ“гҒҜ.cгғ•гӮЎгӮӨгғ«гҒ«иЁҳиҝ°)
.................... // ============================================================================
.................... extern Flash_t piclog_data;
.................... extern Flash_t environment_data;
.................... extern Flash_t iv_header;
.................... extern Flash_t iv_data;
.................... 
.................... // ============================================================================
.................... // еӨ–йғЁе…¬й–Ӣй–ўж•°гғ—гғӯгғҲгӮҝгӮӨгғ—
.................... // ============================================================================
.................... void misf_init(void);
.................... FlashData_t make_flash_data_table(void);
.................... void write_misf_address_area(void);
.................... MisfStatusStruct get_misf_status_struct(uint8_t mission_id);
.................... MisfWriteStruct get_misf_write_struct(uint8_t mission_id);
.................... void print_flash_status(void);
.................... 
.................... #endif // son_tmp_FLASH_H
.................... 
.................... #include "../../../lib/device/mt25q.h"
.................... #ifndef MT25Q_H
.................... #define MT25Q_H
.................... 
.................... // =========
.................... //#define MT25Q_DEBUG
.................... // =========
.................... 
.................... 
.................... #define FLASH_STREAM0 MIS_FM_STREAM     // <- Align the names to `config.h` Stream name
.................... #define FLASH_STREAM1 SMF_STREAM
.................... #define FLASH_STREAM2 SMF_STREAM // dont use
.................... #define FLASH_STREAM3 SMF_STREAM // dont use
.................... 
.................... typedef enum spi_stream{
....................     SPI_0,
....................     SPI_1,
....................     SPI_2,
....................     SPI_3,
.................... }SpiStreamId;
.................... 
.................... #define MT25QL128ABA 0x00     //Mission Flash
.................... #define MT25QL01GBBB 0x01     //SMF,CF
.................... typedef struct select_stream_to_flash{
....................     SpiStreamId spi_stream_id;
....................     unsigned int8 flash_model;
....................     int16 cs_pin;
.................... }Flash;
.................... 
.................... 
.................... Flash mis_fm = {SPI_0, MT25QL128ABA, MIS_FM_CS};
.................... Flash smf = {SPI_1, MT25QL01GBBB, SMF_CS};
.................... 
.................... 
.................... 
.................... // ===================== Function List =====================
.................... // Public Functions
.................... 
.................... int1 is_connect(Flash flash_stream);
.................... 
.................... void write_data_bytes(Flash flash_stream, unsigned int32 write_start_address, int8 *write_data, unsigned int16 write_amount);      
.................... 
.................... void read_data_bytes(Flash flash_stream, unsigned int32 read_start_address, int8 *read_data, unsigned int32 read_amount);  
.................... 
.................... void sector_erase(Flash flash_stream, unsigned int32 sector_address);
.................... 
.................... void subsector_32kByte_erase(Flash flash_stream, unsigned int32 subsector_address);  
....................                                
.................... void subsector_4kByte_erase(Flash flash_stream, unsigned int32 subsector_address);      
.................... 
.................... //Private Functions
....................  
.................... void flash_setting(Flash flash_stream);
....................  
.................... int8 status_register(Flash flash_stream);
....................  
.................... int8 read_id(Flash flash_stream);
....................  
.................... int8 read_data_byte(Flash flash_stream, unsigned int32 read_address);                                               
....................  
.................... void write_data_byte(Flash flash_stream, unsigned int32 write_address,int8 write_data);                             
....................         //
.................... 
.................... 
.................... // ===================== Flash Commands =====================
.................... #define CMD_READ_ID                     0x9F
.................... #define CMD_READ_STATUS_REGISTER        0x05
.................... #define CMD_READ                        0x03//for MT25QL128ABA
.................... #define CMD_4BYTE_READ                  0x13//for MT25QL01GBBB
.................... #define CMD_WRITE_ENABLE                0x06
.................... #define CMD_PAGE_PROGRAM                0x02//for MT25QL128ABA
.................... #define CMD_4BYTE_PAGE_PROGRAM          0x12//for MT25QL01GBBB
.................... #define CMD_SUBSECTOR_4KB_ERASE         0x20//for MT25QL128ABA
.................... #define CMD_4BYTE_SUBSECTOR_4KB_ERASE   0x21//for MT25QL01GBBB
.................... #define CMD_SUBSECTOR_32KB_ERASE        0x52//for MT25QL128ABA
.................... #define CMD_4BYTE_SUBSECTOR_32KB_ERASE  0x5C//for MT25QL01GBBB
.................... #define CMD_SECTOR_ERASE                0xD8//for MT25QL128ABA
.................... #define CMD_4BYTE_SECTOR_ERASE          0xDC//for MT25QL01GBBB
.................... 
.................... // ====================== Value List =====================
.................... #define MANUFACTURER_ID_MICRON 0x20 // Manufacturer ID for Micron flash
.................... #define READ_ID_DATASIZE 20 // 20 bytes for read ID data
.................... 
.................... 
.................... // ====================== Data Structures =====================
.................... typedef union
.................... {
....................     unsigned int8 bytes[READ_ID_DATASIZE]; // 20 bytes for read ID
....................     struct {
....................         unsigned int8 manufacturer_id; // 1 byte
....................         unsigned int8 memory_type;     // 1 byte
....................         unsigned int8 capacity;        // 1 byte
....................         unsigned int8 reserved;       // 1 byte
....................     } fields;
.................... }READ_ID_DATA;
.................... 
.................... 
.................... #endif
.................... 
.................... 
.................... 
.................... 
.................... // ============================================================================
.................... // гӮ°гғӯгғјгғҗгғ«еӨүж•° (и»ўйҖҒзҠ¶ж…ӢгҒ®дҝқжҢҒ)
.................... // ============================================================================
.................... static uint32_t current_transfer_address = 0;
.................... static uint32_t current_transfer_size = 0;
.................... 
.................... // ============================================================================
.................... // SMFпјҲCPLDзөҢз”ұпјүи»ўйҖҒгҒ®е®ҹеҮҰзҗҶ
.................... // ============================================================================
.................... 
.................... void cigs_smf_prepare(void)
.................... {
....................     // дҫӢгҒЁгҒ—гҒҰгҖҒIVгғҮгғјгӮҝпјҲжё©еәҰгғҮгғјгӮҝеҗ«гӮҖпјүгҒ®жңӘгӮігғ”гғјеҲҶгӮ’и»ўйҖҒеҜҫиұЎгҒЁгҒҷгӮӢ
....................     if (iv_data.uncopied_counter > 0)
*
03274:  MOVLB  1
03276:  MOVF   x3A,F
03278:  BTFSC  FD8.2
0327A:  BRA    3282
0327C:  MOVLB  0
0327E:  GOTO   32B4
03282:  MOVLB  0
03284:  MOVLB  1
03286:  MOVF   x3B,F
03288:  BTFSC  FD8.2
0328A:  BRA    3292
0328C:  MOVLB  0
0328E:  GOTO   32B4
03292:  MOVLB  0
03294:  MOVLB  1
03296:  MOVF   x3C,F
03298:  BTFSC  FD8.2
0329A:  BRA    32A2
0329C:  MOVLB  0
0329E:  GOTO   32B4
032A2:  MOVLB  0
032A4:  MOVLB  1
032A6:  MOVF   x3D,F
032A8:  BTFSS  FD8.2
032AA:  BRA    32B2
032AC:  MOVLB  0
032AE:  GOTO   3410
032B2:  MOVLB  0
....................     {
....................         // гӮігғ”гғјй–Ӣе§ӢгӮўгғүгғ¬гӮ№гҒ®иЁҲз®— (дҪҝз”ЁжёҲгҒҝйҮҸгҒӢгӮүжңӘгӮігғ”гғјйҮҸгӮ’еј•гҒ„гҒҹе ҙжүҖгҒҢе…Ҳй ӯ)
....................         current_transfer_address = MISF_CIGS_IV_DATA_START + iv_data.used_counter - iv_data.uncopied_counter;
032B4:  MOVLB  1
032B6:  MOVF   x36,W
032B8:  MOVWF  x64
032BA:  MOVLW  10
032BC:  ADDWF  x37,W
032BE:  MOVWF  x65
032C0:  MOVLW  7C
032C2:  ADDWFC x38,W
032C4:  MOVWF  x66
032C6:  MOVLW  00
032C8:  ADDWFC x39,W
032CA:  MOVWF  x67
032CC:  MOVF   x3A,W
032CE:  SUBWF  x64,W
032D0:  MOVWF  x47
032D2:  MOVF   x3B,W
032D4:  SUBWFB x65,W
032D6:  MOVWF  x48
032D8:  MOVF   x3C,W
032DA:  SUBWFB x66,W
032DC:  MOVWF  x49
032DE:  MOVF   x3D,W
032E0:  SUBWFB x67,W
032E2:  MOVWF  x4A
.................... 
....................         // жңҖеӨ§15гғ‘гӮұгғғгғҲеҲҶпјҲ64Byte Г— 15 = 960ByteпјүгӮ’1еӣһгҒ®и»ўйҖҒгӮөгӮӨгӮәгҒЁгҒҷгӮӢ
....................         uint32_t max_transfer_bytes = PACKET_SIZE * SMF_TRANSFER_PACKETS;
032E4:  CLRF   x63
032E6:  CLRF   x62
032E8:  MOVLW  03
032EA:  MOVWF  x61
032EC:  MOVLW  C0
032EE:  MOVWF  x60
.................... 
....................         if (iv_data.uncopied_counter >= max_transfer_bytes)
032F0:  MOVF   x63,W
032F2:  SUBWF  x3D,W
032F4:  BTFSC  FD8.0
032F6:  BRA    32FE
032F8:  MOVLB  0
032FA:  GOTO   335C
032FE:  MOVLB  0
03300:  BTFSS  FD8.2
03302:  GOTO   3348
03306:  MOVLB  1
03308:  MOVF   x62,W
0330A:  SUBWF  x3C,W
0330C:  BTFSC  FD8.0
0330E:  BRA    3316
03310:  MOVLB  0
03312:  GOTO   335C
03316:  MOVLB  0
03318:  BTFSS  FD8.2
0331A:  GOTO   3348
0331E:  MOVLB  1
03320:  MOVF   x61,W
03322:  SUBWF  x3B,W
03324:  BTFSC  FD8.0
03326:  BRA    332E
03328:  MOVLB  0
0332A:  GOTO   335C
0332E:  MOVLB  0
03330:  BTFSS  FD8.2
03332:  GOTO   3348
03336:  MOVLB  1
03338:  MOVF   x60,W
0333A:  SUBWF  x3A,W
0333C:  BTFSC  FD8.0
0333E:  BRA    3346
03340:  MOVLB  0
03342:  GOTO   335C
03346:  MOVLB  0
....................         {
....................             current_transfer_size = max_transfer_bytes;
03348:  MOVFF  163,14E
0334C:  MOVFF  162,14D
03350:  MOVFF  161,14C
03354:  MOVFF  160,14B
....................         }
03358:  GOTO   336C
....................         else
....................         {
....................             // ж®ӢгӮҠгҒҢ15гғ‘гӮұгғғгғҲжңӘжәҖгҒӘгӮүгҖҒгҒӮгӮӢеҲҶгҒ гҒ‘и»ўйҖҒгҒҷгӮӢ
....................             current_transfer_size = iv_data.uncopied_counter;
0335C:  MOVFF  13D,14E
03360:  MOVFF  13C,14D
03364:  MOVFF  13B,14C
03368:  MOVFF  13A,14B
....................         }
.................... 
....................         fprintf(PC, "\t[SMF] Prepare: Addr=0x%08lX, Size=%lu bytes\r\n", current_transfer_address, current_transfer_size);
0336C:  MOVLW  AE
0336E:  MOVWF  FF6
03370:  MOVLW  04
03372:  MOVWF  FF7
03374:  MOVLW  00
03376:  MOVWF  FF8
03378:  MOVLW  17
0337A:  MOVLB  2
0337C:  MOVWF  x04
0337E:  MOVLB  0
03380:  CALL   0A46
03384:  MOVFF  14A,17D
03388:  MOVLW  37
0338A:  MOVLB  1
0338C:  MOVWF  x7E
0338E:  MOVLB  0
03390:  CALL   1394
03394:  MOVFF  149,17D
03398:  MOVLW  37
0339A:  MOVLB  1
0339C:  MOVWF  x7E
0339E:  MOVLB  0
033A0:  CALL   1394
033A4:  MOVFF  148,17D
033A8:  MOVLW  37
033AA:  MOVLB  1
033AC:  MOVWF  x7E
033AE:  MOVLB  0
033B0:  CALL   1394
033B4:  MOVFF  147,17D
033B8:  MOVLW  37
033BA:  MOVLB  1
033BC:  MOVWF  x7E
033BE:  MOVLB  0
033C0:  CALL   1394
033C4:  MOVLW  CA
033C6:  MOVWF  FF6
033C8:  MOVLW  04
033CA:  MOVWF  FF7
033CC:  MOVLW  00
033CE:  MOVWF  FF8
033D0:  MOVLW  07
033D2:  MOVLB  2
033D4:  MOVWF  x04
033D6:  MOVLB  0
033D8:  CALL   0A46
033DC:  MOVLW  41
033DE:  MOVWF  FE9
033E0:  MOVFF  14E,167
033E4:  MOVFF  14D,166
033E8:  MOVFF  14C,165
033EC:  MOVFF  14B,164
033F0:  GOTO   3172
033F4:  MOVLW  D4
033F6:  MOVWF  FF6
033F8:  MOVLW  04
033FA:  MOVWF  FF7
033FC:  MOVLW  00
033FE:  MOVWF  FF8
03400:  MOVLW  08
03402:  MOVLB  2
03404:  MOVWF  x04
03406:  MOVLB  0
03408:  CALL   0A46
....................     }
0340C:  GOTO   342C
....................     else
....................     {
....................         current_transfer_size = 0;
03410:  MOVLB  1
03412:  CLRF   x4E
03414:  CLRF   x4D
03416:  CLRF   x4C
03418:  CLRF   x4B
....................         fprintf(PC, "\t[SMF] Prepare: No data to copy.\r\n");
0341A:  MOVLW  DE
0341C:  MOVWF  FF6
0341E:  MOVLW  04
03420:  MOVWF  FF7
03422:  MOVLW  00
03424:  MOVWF  FF8
03426:  MOVLB  0
03428:  CALL   0A16
....................     }
0342C:  GOTO   3452 (RETURN)
.................... }
.................... 
.................... void cigs_smf_copy(void)
.................... {
....................     if (current_transfer_size == 0) return;
*
03456:  MOVLB  1
03458:  MOVF   x4B,F
0345A:  BTFSC  FD8.2
0345C:  BRA    3464
0345E:  MOVLB  0
03460:  GOTO   349A
03464:  MOVLB  0
03466:  MOVLB  1
03468:  MOVF   x4C,F
0346A:  BTFSC  FD8.2
0346C:  BRA    3474
0346E:  MOVLB  0
03470:  GOTO   349A
03474:  MOVLB  0
03476:  MOVLB  1
03478:  MOVF   x4D,F
0347A:  BTFSC  FD8.2
0347C:  BRA    3484
0347E:  MOVLB  0
03480:  GOTO   349A
03484:  MOVLB  0
03486:  MOVLB  1
03488:  MOVF   x4E,F
0348A:  BTFSC  FD8.2
0348C:  BRA    3494
0348E:  MOVLB  0
03490:  GOTO   349A
03494:  MOVLB  0
03496:  GOTO   3632
.................... 
....................     uint8_t buffer[PACKET_SIZE];
....................     uint32_t remaining = current_transfer_size;
....................     uint32_t addr = current_transfer_address;
0349A:  MOVFF  14E,1A3
0349E:  MOVFF  14D,1A2
034A2:  MOVFF  14C,1A1
034A6:  MOVFF  14B,1A0
034AA:  MOVFF  14A,1A7
034AE:  MOVFF  149,1A6
034B2:  MOVFF  148,1A5
034B6:  MOVFF  147,1A4
.................... 
....................     fprintf(PC, "\t[SMF] Copying data to CPLD...\r\n");
034BA:  MOVLW  02
034BC:  MOVWF  FF6
034BE:  MOVLW  05
034C0:  MOVWF  FF7
034C2:  MOVLW  00
034C4:  MOVWF  FF8
034C6:  CALL   0A16
.................... 
....................     // CPLDгҒ®гғҒгғғгғ—гӮ»гғ¬гӮҜгғҲгӮ’LowгҒ«гҒ—гҒҰSPIйҖҡдҝЎй–Ӣе§Ӣ
....................     output_low(SMF_CS);
034CA:  BCF    F95.4
034CC:  BCF    F8C.4
.................... 
....................     // гғ‘гӮұгғғгғҲеҚҳдҪҚгҒ§иӘӯгҒҝеҮәгҒ—гҒҰCPLDгҒёи»ўйҖҒгҒҷгӮӢ
....................     while (remaining > 0)
034CE:  MOVLB  1
034D0:  MOVF   xA0,F
034D2:  BTFSC  FD8.2
034D4:  BRA    34DC
034D6:  MOVLB  0
034D8:  GOTO   350E
034DC:  MOVLB  0
034DE:  MOVLB  1
034E0:  MOVF   xA1,F
034E2:  BTFSC  FD8.2
034E4:  BRA    34EC
034E6:  MOVLB  0
034E8:  GOTO   350E
034EC:  MOVLB  0
034EE:  MOVLB  1
034F0:  MOVF   xA2,F
034F2:  BTFSC  FD8.2
034F4:  BRA    34FC
034F6:  MOVLB  0
034F8:  GOTO   350E
034FC:  MOVLB  0
034FE:  MOVLB  1
03500:  MOVF   xA3,F
03502:  BTFSS  FD8.2
03504:  BRA    350C
03506:  MOVLB  0
03508:  GOTO   361E
0350C:  MOVLB  0
....................     {
....................         uint8_t size = (remaining >= PACKET_SIZE) ? PACKET_SIZE : remaining;
0350E:  MOVLB  1
03510:  MOVF   xA3,F
03512:  BTFSC  FD8.2
03514:  BRA    351C
03516:  MOVLB  0
03518:  GOTO   3550
0351C:  MOVLB  0
0351E:  MOVLB  1
03520:  MOVF   xA2,F
03522:  BTFSC  FD8.2
03524:  BRA    352C
03526:  MOVLB  0
03528:  GOTO   3550
0352C:  MOVLB  0
0352E:  MOVLB  1
03530:  MOVF   xA1,F
03532:  BTFSC  FD8.2
03534:  BRA    353C
03536:  MOVLB  0
03538:  GOTO   3550
0353C:  MOVLB  0
0353E:  MOVLB  1
03540:  MOVF   xA0,W
03542:  SUBLW  3F
03544:  BTFSS  FD8.0
03546:  BRA    354E
03548:  MOVLB  0
0354A:  GOTO   3556
0354E:  MOVLB  0
03550:  MOVLW  40
03552:  GOTO   355C
03556:  MOVLB  1
03558:  MOVF   xA0,W
0355A:  MOVLB  0
0355C:  MOVLB  1
0355E:  MOVWF  xA8
03560:  MOVLB  0
.................... 
....................         // 1. MIS_FM(гғҹгғғгӮ·гғ§гғігғ•гғ©гғғгӮ·гғҘ)гҒӢгӮүгғҮгғјгӮҝгӮ’иӘӯгҒҝеҮәгҒ—
....................         read_data_bytes(mis_fm, addr, (int8*)buffer, size);
03562:  MOVLW  01
03564:  MOVLB  1
03566:  MOVWF  xAB
03568:  MOVLW  60
0356A:  MOVWF  xAA
0356C:  MOVFF  107,1AF
03570:  MOVFF  106,1AE
03574:  MOVFF  105,1AD
03578:  MOVFF  104,1AC
0357C:  MOVFF  1A7,1B3
03580:  MOVFF  1A6,1B2
03584:  MOVFF  1A5,1B1
03588:  MOVFF  1A4,1B0
0358C:  MOVFF  1AB,1B5
03590:  MOVFF  1AA,1B4
03594:  CLRF   xB9
03596:  CLRF   xB8
03598:  CLRF   xB7
0359A:  MOVFF  1A8,1B6
0359E:  MOVLB  0
035A0:  CALL   0FBA
.................... 
....................         // 2. SPI2(SMF_STREAM)зөҢз”ұгҒ§CPLDгҒёйҖҒдҝЎ
....................         for (uint8_t i = 0; i < size; i++)
035A4:  MOVLB  1
035A6:  CLRF   xA9
035A8:  MOVLB  0
035AA:  MOVLB  1
035AC:  MOVF   xA8,W
035AE:  SUBWF  xA9,W
035B0:  BTFSS  FD8.0
035B2:  BRA    35BA
035B4:  MOVLB  0
035B6:  GOTO   35EE
035BA:  MOVLB  0
....................         {
....................             spi_xfer(SMF_STREAM, buffer[i]);
035BC:  CLRF   03
035BE:  MOVLB  1
035C0:  MOVF   xA9,W
035C2:  ADDLW  60
035C4:  MOVWF  FE9
035C6:  MOVLW  01
035C8:  ADDWFC 03,W
035CA:  MOVWF  FEA
035CC:  MOVFF  FEF,1AA
035D0:  MOVFF  1AA,23E
035D4:  MOVLW  08
035D6:  MOVLB  2
035D8:  MOVWF  x3F
035DA:  MOVLW  01
035DC:  MOVWF  x40
035DE:  MOVLB  0
035E0:  CALL   0C3A
035E4:  MOVLB  1
035E6:  INCF   xA9,F
035E8:  MOVLB  0
035EA:  GOTO   35AA
....................         }
.................... 
....................         addr += size;
035EE:  MOVLB  1
035F0:  MOVF   xA8,W
035F2:  ADDWF  xA4,F
035F4:  MOVLW  00
035F6:  ADDWFC xA5,F
035F8:  MOVLW  00
035FA:  ADDWFC xA6,F
035FC:  MOVLW  00
035FE:  ADDWFC xA7,F
....................         remaining -= size;
03600:  MOVF   xA8,W
03602:  SUBWF  xA0,F
03604:  MOVLW  00
03606:  SUBWFB xA1,F
03608:  MOVLW  00
0360A:  SUBWFB xA2,F
0360C:  MOVLW  00
0360E:  SUBWFB xA3,F
.................... 
....................         // гғ‘гӮұгғғгғҲи»ўйҖҒй–“гҒ®гӮҰгӮ§гӮӨгғҲпјҲCPLDеҒҙгҒ®еҮҰзҗҶиҗҪгҒЎгӮ’йҳІгҒҗгҒҹгӮҒйҒ©е®ңиӘҝж•ҙпјү
....................         delay_us(100);
03610:  MOVLW  85
03612:  MOVWF  00
03614:  MOVLB  0
03616:  DECFSZ 00,F
03618:  BRA    3616
0361A:  GOTO   34CE
....................     }
.................... 
....................     // CPLDгҒ®гғҒгғғгғ—гӮ»гғ¬гӮҜгғҲгӮ’HighгҒ«гҒ—гҒҰSPIйҖҡдҝЎзөӮдәҶ
....................     output_high(SMF_CS);
0361E:  BCF    F95.4
03620:  BSF    F8C.4
.................... 
....................     fprintf(PC, "\t[SMF] Copy Complete.\r\n");
03622:  MOVLW  24
03624:  MOVWF  FF6
03626:  MOVLW  05
03628:  MOVWF  FF7
0362A:  MOVLW  00
0362C:  MOVWF  FF8
0362E:  CALL   0A16
03632:  GOTO   3658 (RETURN)
.................... }
.................... 
.................... void cigs_smf_permit(void)
.................... {
....................     if (current_transfer_size > 0)
*
0365C:  MOVLB  1
0365E:  MOVF   x4B,F
03660:  BTFSC  FD8.2
03662:  BRA    366A
03664:  MOVLB  0
03666:  GOTO   369C
0366A:  MOVLB  0
0366C:  MOVLB  1
0366E:  MOVF   x4C,F
03670:  BTFSC  FD8.2
03672:  BRA    367A
03674:  MOVLB  0
03676:  GOTO   369C
0367A:  MOVLB  0
0367C:  MOVLB  1
0367E:  MOVF   x4D,F
03680:  BTFSC  FD8.2
03682:  BRA    368A
03684:  MOVLB  0
03686:  GOTO   369C
0368A:  MOVLB  0
0368C:  MOVLB  1
0368E:  MOVF   x4E,F
03690:  BTFSS  FD8.2
03692:  BRA    369A
03694:  MOVLB  0
03696:  GOTO   36CC
0369A:  MOVLB  0
....................     {
....................         // и»ўйҖҒгҒҢжҲҗеҠҹгҒ—гҒҹгҒ®гҒ§гҖҒжңӘгӮігғ”гғјгӮ«гӮҰгғігӮҝгӮ’жёӣз®—гҒҷгӮӢ
....................         iv_data.uncopied_counter -= current_transfer_size;
0369C:  MOVLB  1
0369E:  MOVF   x4B,W
036A0:  SUBWF  x3A,F
036A2:  MOVF   x4C,W
036A4:  SUBWFB x3B,F
036A6:  MOVF   x4D,W
036A8:  SUBWFB x3C,F
036AA:  MOVF   x4E,W
036AC:  SUBWFB x3D,F
....................         current_transfer_size = 0;
036AE:  CLRF   x4E
036B0:  CLRF   x4D
036B2:  CLRF   x4C
036B4:  CLRF   x4B
.................... 
....................         // жӣҙж–°гҒ•гӮҢгҒҹгӮ«гӮҰгғігӮҝжғ…е ұгӮ’FlashгҒ®гӮўгғүгғ¬гӮ№з®ЎзҗҶй ҳеҹҹгҒ«дҝқеӯҳгҒҷгӮӢ
....................         write_misf_address_area();
036B6:  MOVLB  0
036B8:  CALL   1F14
.................... 
....................         fprintf(PC, "\t[SMF] Permit: Counters updated and saved.\r\n");
036BC:  MOVLW  3C
036BE:  MOVWF  FF6
036C0:  MOVLW  05
036C2:  MOVWF  FF7
036C4:  MOVLW  00
036C6:  MOVWF  FF8
036C8:  CALL   0A16
....................     }
036CC:  GOTO   36F2 (RETURN)
.................... }
.................... 
.................... #include "../core/storage/son_tmp_flash.c"
.................... #include "son_tmp_flash.h"
.................... #ifndef son_tmp_FLASH_H
.................... #define son_tmp_FLASH_H
.................... 
.................... #include <stdint.h>
.................... #include <string.h>
.................... #include "../../system/son_tmp_config.h"
.................... 
.................... // е…ұйҖҡгғ©гӮӨгғ–гғ©гғӘгҒ®гғҳгғғгғҖ (MissionIDгҒӘгҒ©гҒ®е®ҡж•°з”Ё)
.................... // #include "../../../lib/communication/typedef_content.h"
.................... // #include "../../../lib/communication/value_status.h"
.................... 
.................... // ============================================================================
.................... // гғЎгғўгғӘгғһгғғгғ—е®ҡзҫ© (MT25QL128ABA: 16MB)
.................... // ============================================================================
.................... #define MISF_START 0x00000000
.................... #define MISF_END   0x00FFFFFF
.................... 
.................... #define SECTOR_64K_BYTE  0x10000
.................... 
.................... #define MISF_CIGS_DATA_TABLE_SIZE 64
.................... 
.................... #define MISF_CIGS_DATA_TABLE_START 0x00000000
.................... #define MISF_CIGS_DATA_TABLE_END   0x00000FFF
.................... #define MISF_CIGS_PICLOG_START     0x00010000
.................... #define MISF_CIGS_PICLOG_END       0x00140FFF
.................... #define MISF_CIGS_ENVIRO_START     0x00281000
.................... #define MISF_CIGS_ENVIRO_END       0x00320FFF
.................... #define MISF_CIGS_IV_HEADER_START  0x00721000
.................... #define MISF_CIGS_IV_HEADER_END    0x007C0FFF
.................... #define MISF_CIGS_IV_DATA_START    0x007C1000
.................... #define MISF_CIGS_IV_DATA_END      0x00D00000
.................... 
.................... // ============================================================================
.................... // гғҮгғјгӮҝж§ӢйҖ дҪ“е®ҡзҫ©
.................... // ============================================================================
.................... 
.................... // гғ•гғ©гғғгӮ·гғҘгӮ«гӮҰгғігӮҝж§ӢйҖ дҪ“ (11 Bytes)
.................... typedef struct
.................... {
....................     uint8_t   mission_id;
....................     uint32_t  used_counter;
....................     uint32_t  uncopied_counter;
....................     uint8_t   reserve_counter1;
....................     uint8_t   reserve_counter2;
.................... } Flash_t;
.................... 
.................... // гғҶгғјгғ–гғ«дҝқеӯҳз”ЁгҒ®64Byteгғ‘гӮұгғғгғҲж§ӢйҖ дҪ“
.................... typedef union
.................... {
....................     struct
....................     {
....................         union
....................         {
....................             struct
....................             {
....................                 Flash_t piclog;
....................                 Flash_t environment;
....................                 Flash_t iv_header;
....................                 Flash_t iv_data;
....................             } logdata;
....................             uint8_t reserve[63];
....................         } payload;
....................         uint8_t crc; // 1гғҗгӮӨгғҲгҒ®CRC
....................     } packet;
....................     uint8_t bytes[64];
.................... } FlashData_t;
.................... 
.................... typedef struct
.................... {
....................     uint32_t start_address;
....................     uint32_t end_address;
.................... } MisfStatusStruct;
.................... 
.................... typedef struct
.................... {
....................     uint32_t start_address;
....................     uint32_t size;
.................... } MisfWriteStruct;
.................... 
.................... // ============================================================================
.................... // гӮ°гғӯгғјгғҗгғ«еӨүж•° (е®ЈиЁҖгҒ®гҒҝгҖҒе®ҹдҪ“гҒҜ.cгғ•гӮЎгӮӨгғ«гҒ«иЁҳиҝ°)
.................... // ============================================================================
.................... extern Flash_t piclog_data;
.................... extern Flash_t environment_data;
.................... extern Flash_t iv_header;
.................... extern Flash_t iv_data;
.................... 
.................... // ============================================================================
.................... // еӨ–йғЁе…¬й–Ӣй–ўж•°гғ—гғӯгғҲгӮҝгӮӨгғ—
.................... // ============================================================================
.................... void misf_init(void);
.................... FlashData_t make_flash_data_table(void);
.................... void write_misf_address_area(void);
.................... MisfStatusStruct get_misf_status_struct(uint8_t mission_id);
.................... MisfWriteStruct get_misf_write_struct(uint8_t mission_id);
.................... void print_flash_status(void);
.................... 
.................... #endif // son_tmp_FLASH_H
.................... 
.................... #include "../../../lib/device/mt25q.h"
.................... #ifndef MT25Q_H
.................... #define MT25Q_H
.................... 
.................... // =========
.................... //#define MT25Q_DEBUG
.................... // =========
.................... 
.................... 
.................... #define FLASH_STREAM0 MIS_FM_STREAM     // <- Align the names to `config.h` Stream name
.................... #define FLASH_STREAM1 SMF_STREAM
.................... #define FLASH_STREAM2 SMF_STREAM // dont use
.................... #define FLASH_STREAM3 SMF_STREAM // dont use
.................... 
.................... typedef enum spi_stream{
....................     SPI_0,
....................     SPI_1,
....................     SPI_2,
....................     SPI_3,
.................... }SpiStreamId;
.................... 
.................... #define MT25QL128ABA 0x00     //Mission Flash
.................... #define MT25QL01GBBB 0x01     //SMF,CF
.................... typedef struct select_stream_to_flash{
....................     SpiStreamId spi_stream_id;
....................     unsigned int8 flash_model;
....................     int16 cs_pin;
.................... }Flash;
.................... 
.................... 
.................... Flash mis_fm = {SPI_0, MT25QL128ABA, MIS_FM_CS};
.................... Flash smf = {SPI_1, MT25QL01GBBB, SMF_CS};
.................... 
.................... 
.................... 
.................... // ===================== Function List =====================
.................... // Public Functions
.................... 
.................... int1 is_connect(Flash flash_stream);
.................... 
.................... void write_data_bytes(Flash flash_stream, unsigned int32 write_start_address, int8 *write_data, unsigned int16 write_amount);      
.................... 
.................... void read_data_bytes(Flash flash_stream, unsigned int32 read_start_address, int8 *read_data, unsigned int32 read_amount);  
.................... 
.................... void sector_erase(Flash flash_stream, unsigned int32 sector_address);
.................... 
.................... void subsector_32kByte_erase(Flash flash_stream, unsigned int32 subsector_address);  
....................                                
.................... void subsector_4kByte_erase(Flash flash_stream, unsigned int32 subsector_address);      
.................... 
.................... //Private Functions
....................  
.................... void flash_setting(Flash flash_stream);
....................  
.................... int8 status_register(Flash flash_stream);
....................  
.................... int8 read_id(Flash flash_stream);
....................  
.................... int8 read_data_byte(Flash flash_stream, unsigned int32 read_address);                                               
....................  
.................... void write_data_byte(Flash flash_stream, unsigned int32 write_address,int8 write_data);                             
....................         //
.................... 
.................... 
.................... // ===================== Flash Commands =====================
.................... #define CMD_READ_ID                     0x9F
.................... #define CMD_READ_STATUS_REGISTER        0x05
.................... #define CMD_READ                        0x03//for MT25QL128ABA
.................... #define CMD_4BYTE_READ                  0x13//for MT25QL01GBBB
.................... #define CMD_WRITE_ENABLE                0x06
.................... #define CMD_PAGE_PROGRAM                0x02//for MT25QL128ABA
.................... #define CMD_4BYTE_PAGE_PROGRAM          0x12//for MT25QL01GBBB
.................... #define CMD_SUBSECTOR_4KB_ERASE         0x20//for MT25QL128ABA
.................... #define CMD_4BYTE_SUBSECTOR_4KB_ERASE   0x21//for MT25QL01GBBB
.................... #define CMD_SUBSECTOR_32KB_ERASE        0x52//for MT25QL128ABA
.................... #define CMD_4BYTE_SUBSECTOR_32KB_ERASE  0x5C//for MT25QL01GBBB
.................... #define CMD_SECTOR_ERASE                0xD8//for MT25QL128ABA
.................... #define CMD_4BYTE_SECTOR_ERASE          0xDC//for MT25QL01GBBB
.................... 
.................... // ====================== Value List =====================
.................... #define MANUFACTURER_ID_MICRON 0x20 // Manufacturer ID for Micron flash
.................... #define READ_ID_DATASIZE 20 // 20 bytes for read ID data
.................... 
.................... 
.................... // ====================== Data Structures =====================
.................... typedef union
.................... {
....................     unsigned int8 bytes[READ_ID_DATASIZE]; // 20 bytes for read ID
....................     struct {
....................         unsigned int8 manufacturer_id; // 1 byte
....................         unsigned int8 memory_type;     // 1 byte
....................         unsigned int8 capacity;        // 1 byte
....................         unsigned int8 reserved;       // 1 byte
....................     } fields;
.................... }READ_ID_DATA;
.................... 
.................... 
.................... #endif
.................... 
.................... 
.................... 
.................... #include "../../../lib/tool/calc_tools.h"
.................... #ifndef CALC_TOOLS_H
.................... #define CALC_TOOLS_H
....................  
.................... unsigned int8 calc_crc8(unsigned int8 *frame, unsigned int8 payload_size);
.................... int1 is_crc_valid(unsigned int8 *frame, int8 payload_size);
.................... void int32_to_be_array(int32 value, int8 *buf, int8 index);
.................... int32 lsb_array_to_int32(int8 *buf, int8 index);
.................... unsigned int32 lsb_to_msb(unsigned int32 value);
.................... unsigned int32 msb_to_lsb(unsigned int32 value);
.................... 
.................... 
.................... #endif // CALC_TOOLS_H  
.................... 
.................... // #include "../../../lib/communication/typedef_content.h"
.................... 
.................... extern void subsector_4kByte_erase(Flash flash_stream, unsigned int32 erase_address);
.................... 
.................... // ============================================================================
.................... // гӮ°гғӯгғјгғҗгғ«еӨүж•°гҒ®е®ҹдҪ“е®ҡзҫ©
.................... // вҖ»еҗ„ mission_id е®ҡж•° (0x01зӯү) гҒҜгӮ·гӮ№гғҶгғ гҒ®е®ҡзҫ©гҒ«еҗҲгӮҸгҒӣгҒҰиӘҝж•ҙгҒ—гҒҰгҒҸгҒ гҒ•гҒ„
.................... // ============================================================================
.................... Flash_t piclog_data = {0x01, 0, 0, 0, 0};
.................... Flash_t environment_data = {0x02, 0, 0, 0, 0};
.................... Flash_t iv_header = {0x03, 0, 0, 0, 0};
.................... Flash_t iv_data = {0x04, 0, 0, 0, 0};
.................... 
.................... void misf_init()
.................... {
....................     fprintf(PC, "MISSION FLASH Initialize\r\n");
*
011D2:  MOVLW  6A
011D4:  MOVWF  FF6
011D6:  MOVLW  05
011D8:  MOVWF  FF7
011DA:  MOVLW  00
011DC:  MOVWF  FF8
011DE:  CALL   0A16
.................... 
....................     // CSгғ”гғігҒ®еҲқжңҹеҢ–пјҲHighгҒ§йқһйҒёжҠһпјү
....................     output_high(MIS_FM_CS);
011E2:  BCF    F93.1
011E4:  BSF    F8A.1
....................     output_high(SMF_CS);
011E6:  BCF    F95.4
011E8:  BSF    F8C.4
....................     delay_ms(100);
011EA:  MOVLW  64
011EC:  MOVLB  2
011EE:  MOVWF  x1C
011F0:  MOVLB  0
011F2:  CALL   0996
.................... 
....................     // гғҮгғҗгӮӨгӮ№гҒ®жҺҘз¶ҡзўәиӘҚ
....................     if (is_connect(mis_fm))
011F6:  MOVFF  107,19F
011FA:  MOVFF  106,19E
011FE:  MOVFF  105,19D
01202:  MOVFF  104,19C
01206:  CALL   0ECE
0120A:  MOVF   01,F
0120C:  BTFSC  FD8.2
0120E:  GOTO   1226
....................     {
....................         fprintf(PC, "\t[MIS FM] Connected\r\n");
01212:  MOVLW  86
01214:  MOVWF  FF6
01216:  MOVLW  05
01218:  MOVWF  FF7
0121A:  MOVLW  00
0121C:  MOVWF  FF8
0121E:  CALL   0A16
....................     }
01222:  GOTO   1236
....................     else
....................     {
....................         fprintf(PC, "\t[MIS FM] Not Connected\r\n");
01226:  MOVLW  9C
01228:  MOVWF  FF6
0122A:  MOVLW  05
0122C:  MOVWF  FF7
0122E:  MOVLW  00
01230:  MOVWF  FF8
01232:  CALL   0A16
....................     }
.................... 
....................     if (is_connect(smf))
01236:  MOVFF  10B,19F
0123A:  MOVFF  10A,19E
0123E:  MOVFF  109,19D
01242:  MOVFF  108,19C
01246:  CALL   0ECE
0124A:  MOVF   01,F
0124C:  BTFSC  FD8.2
0124E:  GOTO   1266
....................     {
....................         fprintf(PC, "\t[SMF] Connected\r\n");
01252:  MOVLW  B6
01254:  MOVWF  FF6
01256:  MOVLW  05
01258:  MOVWF  FF7
0125A:  MOVLW  00
0125C:  MOVWF  FF8
0125E:  CALL   0A16
....................     }
01262:  GOTO   1276
....................     else
....................     {
....................         fprintf(PC, "\t[SMF] Not Connected\r\n");
01266:  MOVLW  CA
01268:  MOVWF  FF6
0126A:  MOVLW  05
0126C:  MOVWF  FF7
0126E:  MOVLW  00
01270:  MOVWF  FF8
01272:  CALL   0A16
....................     }
.................... 
....................     // --- гӮ«гӮҰгғігӮҝгғҶгғјгғ–гғ«гҒ®еҫ©е…ғ ---
....................     FlashData_t flash_data;
....................     memset(flash_data.bytes, 0, PACKET_SIZE);
01276:  MOVLW  01
01278:  MOVWF  FEA
0127A:  MOVLW  5C
0127C:  MOVWF  FE9
0127E:  CLRF   00
01280:  CLRF   02
01282:  MOVLW  40
01284:  MOVWF  01
01286:  CALL   0F96
.................... 
....................     // гӮўгғүгғ¬гӮ№ 0x00000000 гҒӢгӮү 64Byte гӮ’иӘӯгҒҝеҮәгҒҷ
....................     read_data_bytes(mis_fm, MISF_CIGS_DATA_TABLE_START, flash_data.bytes, PACKET_SIZE);
0128A:  MOVFF  107,1AF
0128E:  MOVFF  106,1AE
01292:  MOVFF  105,1AD
01296:  MOVFF  104,1AC
0129A:  MOVLB  1
0129C:  CLRF   xB3
0129E:  CLRF   xB2
012A0:  CLRF   xB1
012A2:  CLRF   xB0
012A4:  MOVLW  01
012A6:  MOVWF  xB5
012A8:  MOVLW  5C
012AA:  MOVWF  xB4
012AC:  CLRF   xB9
012AE:  CLRF   xB8
012B0:  CLRF   xB7
012B2:  MOVLW  40
012B4:  MOVWF  xB6
012B6:  MOVLB  0
012B8:  CALL   0FBA
.................... 
....................     // иӘӯгҒҝиҫјгӮ“гҒ гғҮгғјгӮҝгҒҢжңӘгғ•гӮ©гғјгғһгғғгғҲ(0xFF)гҒ§гҒӘгҒ„гҒӢгӮ’з°Ўжҳ“гғҒгӮ§гғғгӮҜ
....................     if (flash_data.packet.payload.logdata.piclog.mission_id != 0xFF)
012BC:  MOVLB  1
012BE:  INCFSZ x5C,W
012C0:  BRA    12C6
012C2:  BRA    12CC
012C4:  MOVLB  0
012C6:  MOVLB  0
012C8:  GOTO   12D2
012CC:  MOVLB  0
012CE:  GOTO   135E
....................     {
....................         piclog_data = flash_data.packet.payload.logdata.piclog;
012D2:  MOVLW  01
012D4:  MOVWF  FEA
012D6:  MOVLW  14
012D8:  MOVWF  FE9
012DA:  MOVLW  01
012DC:  MOVWF  FE2
012DE:  MOVLW  5C
012E0:  MOVWF  FE1
012E2:  MOVLW  0B
012E4:  MOVWF  01
012E6:  MOVFF  FE6,FEE
012EA:  DECFSZ 01,F
012EC:  GOTO   12E6
....................         environment_data = flash_data.packet.payload.logdata.environment;
012F0:  MOVLW  01
012F2:  MOVWF  FEA
012F4:  MOVLW  1F
012F6:  MOVWF  FE9
012F8:  MOVLW  01
012FA:  MOVWF  FE2
012FC:  MOVLW  67
012FE:  MOVWF  FE1
01300:  MOVLW  0B
01302:  MOVWF  01
01304:  MOVFF  FE6,FEE
01308:  DECFSZ 01,F
0130A:  GOTO   1304
....................         iv_header = flash_data.packet.payload.logdata.iv_header;
0130E:  MOVLW  01
01310:  MOVWF  FEA
01312:  MOVLW  2A
01314:  MOVWF  FE9
01316:  MOVLW  01
01318:  MOVWF  FE2
0131A:  MOVLW  72
0131C:  MOVWF  FE1
0131E:  MOVLW  0B
01320:  MOVWF  01
01322:  MOVFF  FE6,FEE
01326:  DECFSZ 01,F
01328:  GOTO   1322
....................         iv_data = flash_data.packet.payload.logdata.iv_data;
0132C:  MOVLW  01
0132E:  MOVWF  FEA
01330:  MOVLW  35
01332:  MOVWF  FE9
01334:  MOVLW  01
01336:  MOVWF  FE2
01338:  MOVLW  7D
0133A:  MOVWF  FE1
0133C:  MOVLW  0B
0133E:  MOVWF  01
01340:  MOVFF  FE6,FEE
01344:  DECFSZ 01,F
01346:  GOTO   1340
....................         fprintf(PC, "\tData table loaded from Flash.\r\n");
0134A:  MOVLW  E2
0134C:  MOVWF  FF6
0134E:  MOVLW  05
01350:  MOVWF  FF7
01352:  MOVLW  00
01354:  MOVWF  FF8
01356:  CALL   0A16
....................     }
0135A:  GOTO   136E
....................     else
....................     {
....................         // зңҹгҒЈзҷҪгҒӘе ҙеҗҲгҒҜгӮјгғӯгғӘгӮ»гғғгғҲгӮ’з¶ӯжҢҒгҒҷгӮӢ
....................         fprintf(PC, "\tData table is empty. Initialized to zero.\r\n");
0135E:  MOVLW  04
01360:  MOVWF  FF6
01362:  MOVLW  06
01364:  MOVWF  FF7
01366:  MOVLW  00
01368:  MOVWF  FF8
0136A:  CALL   0A16
....................     }
.................... 
....................     fprintf(PC, "\tComplete\r\n");
0136E:  MOVLW  32
01370:  MOVWF  FF6
01372:  MOVLW  06
01374:  MOVWF  FF7
01376:  MOVLW  00
01378:  MOVWF  FF8
0137A:  CALL   0A16
0137E:  GOTO   3B9A (RETURN)
.................... }
.................... 
.................... FlashData_t make_flash_data_table()
.................... {
....................     FlashData_t flash_data;
....................     memset(flash_data.bytes, 0, PACKET_SIZE);
*
01B00:  MOVLW  01
01B02:  MOVWF  FEA
01B04:  MOVLW  FA
01B06:  MOVWF  FE9
01B08:  CLRF   00
01B0A:  CLRF   02
01B0C:  MOVLW  40
01B0E:  MOVWF  01
01B10:  CALL   0F96
.................... 
....................     flash_data.packet.payload.logdata.piclog = piclog_data;
01B14:  MOVLW  01
01B16:  MOVWF  FEA
01B18:  MOVLW  FA
01B1A:  MOVWF  FE9
01B1C:  MOVLW  01
01B1E:  MOVWF  FE2
01B20:  MOVLW  14
01B22:  MOVWF  FE1
01B24:  MOVLW  0B
01B26:  MOVWF  01
01B28:  MOVFF  FE6,FEE
01B2C:  DECFSZ 01,F
01B2E:  GOTO   1B28
....................     flash_data.packet.payload.logdata.environment = environment_data;
01B32:  MOVLW  02
01B34:  MOVWF  FEA
01B36:  MOVLW  05
01B38:  MOVWF  FE9
01B3A:  MOVLW  01
01B3C:  MOVWF  FE2
01B3E:  MOVLW  1F
01B40:  MOVWF  FE1
01B42:  MOVLW  0B
01B44:  MOVWF  01
01B46:  MOVFF  FE6,FEE
01B4A:  DECFSZ 01,F
01B4C:  GOTO   1B46
....................     flash_data.packet.payload.logdata.iv_header = iv_header;
01B50:  MOVLW  02
01B52:  MOVWF  FEA
01B54:  MOVLW  10
01B56:  MOVWF  FE9
01B58:  MOVLW  01
01B5A:  MOVWF  FE2
01B5C:  MOVLW  2A
01B5E:  MOVWF  FE1
01B60:  MOVLW  0B
01B62:  MOVWF  01
01B64:  MOVFF  FE6,FEE
01B68:  DECFSZ 01,F
01B6A:  GOTO   1B64
....................     flash_data.packet.payload.logdata.iv_data = iv_data;
01B6E:  MOVLW  02
01B70:  MOVWF  FEA
01B72:  MOVLW  1B
01B74:  MOVWF  FE9
01B76:  MOVLW  01
01B78:  MOVWF  FE2
01B7A:  MOVLW  35
01B7C:  MOVWF  FE1
01B7E:  MOVLW  0B
01B80:  MOVWF  01
01B82:  MOVFF  FE6,FEE
01B86:  DECFSZ 01,F
01B88:  GOTO   1B82
.................... 
....................     flash_data.packet.crc = calc_crc8(flash_data.packet.payload.reserve, PACKET_SIZE - 1);
01B8C:  MOVLW  01
01B8E:  MOVLB  2
01B90:  MOVWF  x3B
01B92:  MOVLW  FA
01B94:  MOVWF  x3A
01B96:  MOVLW  3F
01B98:  MOVWF  x3C
01B9A:  MOVLB  0
01B9C:  CALL   1A94
01BA0:  MOVFF  01,239
.................... 
....................     return flash_data;
01BA4:  MOVLW  FA
01BA6:  MOVWF  01
01BA8:  MOVLW  01
01BAA:  MOVWF  02
01BAC:  GOTO   1F18 (RETURN)
.................... }
.................... 
.................... void write_misf_address_area()
*
01F14:  GOTO   1B00
01F18:  MOVFF  02,03
01F1C:  MOVF   01,W
01F1E:  MOVWF  FE1
01F20:  MOVFF  03,FE2
01F24:  MOVLW  01
01F26:  MOVWF  FEA
01F28:  MOVLW  B4
01F2A:  MOVWF  FE9
01F2C:  MOVLW  40
01F2E:  MOVWF  01
01F30:  MOVFF  FE6,FEE
01F34:  DECFSZ 01,F
01F36:  GOTO   1F30
.................... {
....................     FlashData_t flash_data = make_flash_data_table();
.................... 
....................     // жңҖеҲқгҒ®гӮөгғ–гӮ»гӮҜгӮҝ(4KB)гӮ’ж¶ҲеҺ»гҒ—гҒҰгҒӢгӮүгғҶгғјгғ–гғ«гӮ’жӣёгҒҚиҫјгӮҖ
....................     subsector_4kByte_erase(mis_fm, MISF_CIGS_DATA_TABLE_START);
01F3A:  MOVFF  107,1F7
01F3E:  MOVFF  106,1F6
01F42:  MOVFF  105,1F5
01F46:  MOVFF  104,1F4
01F4A:  MOVLB  1
01F4C:  CLRF   xFB
01F4E:  CLRF   xFA
01F50:  CLRF   xF9
01F52:  CLRF   xF8
01F54:  MOVLB  0
01F56:  GOTO   1BB0
....................     write_data_bytes(mis_fm, MISF_CIGS_DATA_TABLE_START, flash_data.bytes, PACKET_SIZE);
01F5A:  MOVFF  107,207
01F5E:  MOVFF  106,206
01F62:  MOVFF  105,205
01F66:  MOVFF  104,204
01F6A:  MOVLB  2
01F6C:  CLRF   x0B
01F6E:  CLRF   x0A
01F70:  CLRF   x09
01F72:  CLRF   x08
01F74:  MOVLW  01
01F76:  MOVWF  x0D
01F78:  MOVLW  B4
01F7A:  MOVWF  x0C
01F7C:  CLRF   x0F
01F7E:  MOVLW  40
01F80:  MOVWF  x0E
01F82:  MOVLB  0
01F84:  CALL   1710
.................... 
....................     #ifdef MT25Q_DEBUG
01F88:  RETURN 0
....................     fprintf(PC, "Address Area Updated\r\n");
....................     #endif
.................... }
.................... 
.................... MisfStatusStruct get_misf_status_struct(uint8_t mission_id)
.................... {
....................     MisfStatusStruct mis_struct = {0, 0};
.................... 
....................     // вҖ»е®ҡж•° (CIGS_PICLOG_DATA зӯү) гҒҜеӨ–йғЁе…ұйҖҡгғҳгғғгғҖгҒ«дҫқеӯҳ
....................     if (mission_id == CIGS_PICLOG_DATA)
....................     {
....................         mis_struct.start_address = MISF_CIGS_PICLOG_START;
....................         mis_struct.end_address   = MISF_CIGS_PICLOG_END;
....................     }
....................     else if (mission_id == CIGS_ENVIRO_DATA)
....................     {
....................         mis_struct.start_address = MISF_CIGS_ENVIRO_START;
....................         mis_struct.end_address   = MISF_CIGS_ENVIRO_END;
....................     }
....................     else if (mission_id == CIGS_IV_DATA)
....................     {
....................         mis_struct.start_address = MISF_CIGS_IV_DATA_START;
....................         mis_struct.end_address   = MISF_CIGS_IV_DATA_END;
....................     }
....................     return mis_struct;
.................... }
.................... 
.................... MisfWriteStruct get_misf_write_struct(uint8_t mission_id)
.................... {
....................     MisfWriteStruct mis_write_struct = {0, 0};
.................... 
....................     if (mission_id == CIGS_DATA_TABLE)
....................     {
....................         mis_write_struct.start_address = MISF_CIGS_DATA_TABLE_START;
....................         mis_write_struct.size = MISF_CIGS_DATA_TABLE_SIZE;
....................     }
....................     else if (mission_id == CIGS_PICLOG_DATA)
....................     {
....................         mis_write_struct.start_address = MISF_CIGS_PICLOG_START + piclog_data.used_counter - piclog_data.uncopied_counter;
....................         mis_write_struct.size = piclog_data.uncopied_counter;
....................     }
....................     else if (mission_id == CIGS_ENVIRO_DATA)
....................     {
....................         mis_write_struct.start_address = MISF_CIGS_ENVIRO_START + environment_data.used_counter - environment_data.uncopied_counter;
....................         mis_write_struct.size = environment_data.uncopied_counter;
....................     }
....................     else if (mission_id == CIGS_IV_DATA)
....................     {
....................         mis_write_struct.start_address = MISF_CIGS_IV_DATA_START + iv_data.used_counter - iv_data.uncopied_counter;
....................         mis_write_struct.size = iv_data.uncopied_counter;
....................     }
.................... 
....................     return mis_write_struct;
.................... }
.................... 
.................... void print_flash_status()
.................... {
....................     fprintf(PC, "--- Flash Status ---\r\n");
....................     fprintf(PC, "PICLOG  Used: %lu, Uncopied: %lu\r\n", piclog_data.used_counter, piclog_data.uncopied_counter);
....................     fprintf(PC, "ENVIRO  Used: %lu, Uncopied: %lu\r\n", environment_data.used_counter, environment_data.uncopied_counter);
....................     fprintf(PC, "IV DATA Used: %lu, Uncopied: %lu\r\n", iv_data.used_counter, iv_data.uncopied_counter);
....................     fprintf(PC, "--------------------\r\n");
.................... }
.................... 
.................... 
.................... // гӮўгғ—гғӘгӮұгғјгӮ·гғ§гғіе®ҹиЈ…гғ•гӮЎгӮӨгғ«
.................... #include "../application/mission/son_tmp_excute_mission.c"
.................... #include "son_tmp_excute_mission.h"
.................... #ifndef SON_TMP_EXCUTE_MISSION_H
.................... #define SON_TMP_EXCUTE_MISSION_H
.................... 
.................... #include <stdint.h>
.................... #include <stdbool.h>
.................... 
.................... #include "../../system/son_tmp_config.h"
.................... #include "../../../lib/communication/value_status.h"
.................... #include "../../../lib/communication/typedef_content.h" // Commandж§ӢйҖ дҪ“гӮ’дҪҝгҒҶгҒҹгӮҒгҒ«иҝҪеҠ 
.................... 
.................... // ============================================================================
.................... // й–ўж•°гғ—гғӯгғҲгӮҝгӮӨгғ—
.................... // ============================================================================
.................... void cigs_system_init(void);
.................... 
.................... // гғҗгғғгғ•гӮЎгӮ’зӣҙжҺҘиӘӯгӮҖгҒ®гҒ§гҒҜгҒӘгҒҸгҖҒи§ЈжһҗжёҲгҒҝгҒ®CommandгӮ’еј•ж•°гҒ§еҸ—гҒ‘еҸ–гӮӢгӮҲгҒҶгҒ«еӨүжӣҙ
.................... void execute_mission_command(Command* cmd);
.................... 
.................... #endif // SON_TMP_EXCUTE_MISSION_H
.................... 
.................... #include "../../hardware/mcu/uart.h"
.................... #ifndef UART_H
.................... #define UART_H
.................... 
.................... // _________ defines ________________
.................... 
.................... #define RECEIVE_BUFFER_MAX 32
.................... 
.................... 
.................... // _____________ values _______________
.................... 
.................... extern volatile unsigned int8 boss_receive_buffer[RECEIVE_BUFFER_MAX];
.................... extern volatile int8 boss_receive_buffer_size;
.................... 
.................... 
.................... // _______________ functions ___________
.................... 
.................... #INT_RDA
.................... static void RDA_isr(void);
.................... 
.................... void setup_uart_to_boss();
.................... 
.................... void clear_receive_signal(unsigned int8 receive_signal[], int8 *receive_signal_size);
.................... 
.................... 
.................... 
.................... #endif
.................... 
.................... 
.................... #include "../../hardware/mcu/timer.h"
.................... #ifndef TIMER_H
.................... #define TIMER_H
.................... 
.................... #include <stdint.h>
.................... 
.................... // __________ values _________
.................... 
.................... // гғ‘гӮұгғғгғҲгғҳгғғгғҖгғјгҒ® timestamp гҒ§дҪҝз”ЁгҒҷгӮӢгҒҹгӮҒгҒ®з§’гӮ«гӮҰгғігӮҝ
.................... extern volatile uint32_t sec;
.................... 
.................... 
.................... // __________ functions _________
.................... uint32_t get_current_sec();
.................... void set_current_sec(uint32_t new_sec);
.................... void setup_timer();
.................... 
.................... #INT_TIMER1
.................... void TIMER1_isr();
.................... 
.................... #endif
.................... 
.................... #include "../../core/logging/son_tmp_piclog.h"
.................... #ifndef son_tmp_PICLOG_H
.................... #define son_tmp_PICLOG_H
.................... 
.................... #include <stdint.h>
.................... #include <string.h>
.................... 
.................... // ============================================================================
.................... // PICLOG е®ҡж•°е®ҡзҫ©
.................... // ============================================================================
.................... #define PICLOG_STARTUP     0x00
.................... #define PICLOG_PARAM_START 0x00
.................... #define PICLOG_PARAM_END   0xFF
.................... 
.................... #define PICLOG_PACKET_SIZE 6
.................... #define PICLOG_BLANK_SIZE  4
.................... 
.................... // ============================================================================
.................... // PICLOG гғҮгғјгӮҝж§ӢйҖ дҪ“ (6 Byte)
.................... // ============================================================================
.................... typedef union
.................... {
....................     struct
....................     {
....................         uint32_t time;       // 4 Byte: гӮҝгӮӨгғ гӮ№гӮҝгғігғ—
....................         uint8_t  function;   // 1 Byte: е®ҹиЎҢй–ўж•°гғ»гӮӨгғҷгғігғҲID
....................         uint8_t  parameter;  // 1 Byte: гғ‘гғ©гғЎгғјгӮҝгғ»зҠ¶ж…Ӣ
....................     } fields;
....................     uint8_t bytes[PICLOG_PACKET_SIZE];
.................... } PICLOG_t;
.................... 
.................... // ============================================================================
.................... // еӨ–йғЁе…¬й–Ӣй–ўж•°гғ—гғӯгғҲгӮҝгӮӨгғ—
.................... // ============================================================================
.................... 
.................... // гғӯгӮ°гӮ’дҪңжҲҗгҒ—гҖҒгғ•гғ©гғғгӮ·гғҘгғЎгғўгғӘгҒ«жӣёгҒҚиҫјгӮҖ
.................... // function: гӮӨгғҷгғігғҲID
.................... // parameter: зҠ¶ж…Ӣгғ‘гғ©гғЎгғјгӮҝ
.................... void piclog_make(uint8_t function, uint8_t parameter);
.................... 
.................... #endif // son_tmp_PICLOG_H
.................... 
.................... #include "son_tmp_mode_mission.h"
.................... #ifndef son_tmp_MODE_MISSION_H
.................... #define son_tmp_MODE_MISSION_H
.................... 
.................... #include <stdint.h>
.................... #include "../../system/son_tmp_config.h"
.................... 
.................... // ============================================================================
.................... // еӨ–йғЁе…¬й–Ӣй–ўж•°гғ—гғӯгғҲгӮҝгӮӨгғ—
.................... // ============================================================================
.................... 
.................... // гғҹгғғгӮ·гғ§гғігҒ®е…ЁдҪ“гӮ·гғјгӮұгғігӮ№гӮ’е®ҹиЎҢгҒҷгӮӢ
.................... // гҒ“гҒ“гҒӢгӮү core/measurement/son_tmp_strain.c гҒ®иЁҲжё¬й–ўж•°гӮ’е‘јгҒіеҮәгҒҷ
.................... void execute_mission_sequence(void);
.................... 
.................... #endif // son_tmp_MODE_MISSION_H
.................... 
.................... #include "son_tmp_mode_flash.h"
.................... #ifndef son_tmp_MODE_FLASH_H
.................... #define son_tmp_MODE_FLASH_H
.................... 
.................... #include <stdint.h>
.................... #include "../../system/son_tmp_config.h"
.................... 
.................... // ============================================================================
.................... // еӨ–йғЁе…¬й–Ӣй–ўж•°гғ—гғӯгғҲгӮҝгӮӨгғ—
.................... // ============================================================================
.................... 
.................... // SMFи»ўйҖҒжә–еӮҷ (CMD_SMF_PREPARE еҸ—дҝЎжҷӮгҒ«е®ҹиЎҢ)
.................... void prepare_smf_transfer(void);
.................... 
.................... // SMFгғҮгғјгӮҝи»ўйҖҒе®ҹиЎҢ (REQ_SMF_COPY еҸ—дҝЎжҷӮгҒ«е®ҹиЎҢ)
.................... void execute_smf_transfer(void);
.................... 
.................... // SMFи»ўйҖҒе®ҢдәҶиЁұеҸҜ (CMD_SMF_PERMIT еҸ—дҝЎжҷӮгҒ«е®ҹиЎҢ)
.................... void permit_smf_transfer(void);
.................... 
.................... #endif // son_tmp_MODE_FLASH_H
.................... 
.................... #include "../../../lib/communication/communication.h" // transmit_ack() зӯүгӮ’дҪҝгҒҶгҒҹгӮҒгҒ«иҝҪеҠ 
.................... #ifndef COMMUNICATION_H
.................... #define COMMUNICATION_H
.................... 
.................... // __________ device IDs ______________
.................... 
.................... #define GS        0x00
.................... #define MAIN_PIC  0x01
.................... #define COM_PIC   0x02
.................... #define RESET_PIC 0x03
.................... #define FAB_PIC   0x04
.................... #define BOSS_PIC  0x05
.................... #define APRS_PIC  0x06
.................... #define CAM_MCU   0x07
.................... #define CHO_MCU   0x08
.................... #define NAKA_PIC  0x09
.................... #define SATO_PIC  0x0A
.................... #define BHU_MCU   0x0B
.................... #define CIGS_PIC  0x0C
.................... 
....................  // <- change to your device name
.................... 
.................... 
.................... 
.................... 
.................... 
.................... 
.................... 
.................... 
.................... 
.................... 
.................... 
.................... 
.................... // ____________ SFD ______________
.................... 
.................... #define SFD 0xAA
.................... 
.................... 
.................... // ____________ typedef _____________
.................... 
.................... typedef struct {
....................     int8 id;
....................     int8 length;
.................... } FrameID;
.................... 
.................... #define CONTENT_MAX 9
.................... typedef struct {
....................     int8 frame_id;
....................     unsigned int8 size;
....................     int1 is_exist;
....................     unsigned int8 content[CONTENT_MAX];
.................... } Command;
.................... 
.................... #include "frame.h"
.................... 
.................... // ______ Receive _______
.................... 
.................... Command make_receive_command(unsigned int8 receive_signal[], int8 receive_signal_size);
.................... 
.................... static int8 trim_receive_signal_header(unsigned int8 receive_signal[], int8 receive_signal_size);
.................... 
.................... static int8 get_content_size(unsigned int8 frame_id);
.................... 
.................... static int1 check_crc(unsigned int8 frame[], int8 receive_frame_size);
.................... 
.................... static int1 check_device_id(unsigned int8 device_id);
.................... 
.................... 
.................... // ______ Transmit _______
.................... 
.................... void transmit_command(TransmitFrameId frame_id, unsigned int8 content[], int8 size);
.................... 
.................... static void transmit(unsigned int8 data[], int8 data_size);
.................... 
.................... // ______ Common _________
.................... 
.................... 
.................... #endif
.................... 
.................... 
.................... 
.................... // ============================================================================
.................... // гӮ°гғӯгғјгғҗгғ«еӨүж•°гҒ®е®ҹдҪ“е®ҡзҫ©
.................... // ============================================================================
.................... unsigned int8 status = 0;
.................... int1 is_use_smf_req_in_mission = 0;
.................... 
.................... // ============================================================================
.................... // еҲқжңҹеҢ–гғ»гғҮгӮЈгӮ№гғ‘гғғгғҒеҮҰзҗҶ
.................... // ============================================================================
.................... 
.................... void cigs_system_init(void)
.................... {
....................     fprintf(PC, "CIGS System Initialize Start\r\n");
.................... 
....................     disable_interrupts(GLOBAL);
.................... 
....................     setup_timer();
....................     setup_uart_to_boss();
.................... 
....................     status = 0;
....................     is_use_smf_req_in_mission = 0;
.................... 
....................     piclog_make(0x00, 0x00); // PICLOG_STARTUP
.................... 
....................     fprintf(PC, "CIGS System Initialize Complete\r\n");
.................... }
.................... 
.................... static void process_boss_command(uint8_t cmd)
.................... {
....................     fprintf(PC, "Received Command: 0x%02X\r\n", cmd);
*
0370A:  MOVLW  1C
0370C:  MOVWF  FF6
0370E:  MOVLW  07
03710:  MOVWF  FF7
03712:  MOVLW  00
03714:  MOVWF  FF8
03716:  MOVLW  14
03718:  MOVLB  2
0371A:  MOVWF  x04
0371C:  MOVLB  0
0371E:  CALL   0A46
03722:  MOVFF  15F,17D
03726:  MOVLW  37
03728:  MOVLB  1
0372A:  MOVWF  x7E
0372C:  MOVLB  0
0372E:  CALL   1394
03732:  MOVLW  0D
03734:  MOVLB  2
03736:  MOVWF  x08
03738:  MOVLB  0
0373A:  CALL   09C4
0373E:  MOVLW  0A
03740:  MOVLB  2
03742:  MOVWF  x08
03744:  MOVLB  0
03746:  CALL   09C4
.................... 
....................     switch (cmd)
0374A:  MOVLB  1
0374C:  MOVF   x5F,W
0374E:  XORLW  10
03750:  MOVLB  0
03752:  BTFSC  FD8.2
03754:  GOTO   377C
03758:  XORLW  30
0375A:  BTFSC  FD8.2
0375C:  GOTO   3788
03760:  XORLW  01
03762:  BTFSC  FD8.2
03764:  GOTO   3794
03768:  XORLW  03
0376A:  BTFSC  FD8.2
0376C:  GOTO   379C
03770:  XORLW  12
03772:  BTFSC  FD8.2
03774:  GOTO   37A4
03778:  GOTO   37AA
....................     {
....................         case CMD_MISSION_START:
....................         {
....................             status = EXECUTING_MISSION;
0377C:  MOVLW  02
0377E:  MOVWF  40
....................             execute_mission_sequence();
03780:  GOTO   2FCE
....................             break;
03784:  GOTO   37EE
....................         }
....................         case CMD_SMF_PREPARE:
....................         {
....................             status = COPYING;
03788:  MOVLW  05
0378A:  MOVWF  40
....................             prepare_smf_transfer();
0378C:  GOTO   3430
....................             break;
03790:  GOTO   37EE
....................         }
....................         case REQ_SMF_COPY:
....................         {
....................             execute_smf_transfer();
03794:  GOTO   3636
....................             break;
03798:  GOTO   37EE
....................         }
....................         case CMD_SMF_PERMIT:
....................         {
....................             permit_smf_transfer();
0379C:  GOTO   36D0
....................             break;
037A0:  GOTO   37EE
....................         }
....................         case REQ_POWER_OFF:
....................         {
....................             status = 0;
037A4:  CLRF   40
....................             break;
037A6:  GOTO   37EE
....................         }
....................         default:
....................         {
....................             fprintf(PC, "Unknown Command: 0x%02X\r\n", cmd);
037AA:  MOVLW  38
037AC:  MOVWF  FF6
037AE:  MOVLW  07
037B0:  MOVWF  FF7
037B2:  MOVLW  00
037B4:  MOVWF  FF8
037B6:  MOVLW  13
037B8:  MOVLB  2
037BA:  MOVWF  x04
037BC:  MOVLB  0
037BE:  CALL   0A46
037C2:  MOVFF  15F,17D
037C6:  MOVLW  37
037C8:  MOVLB  1
037CA:  MOVWF  x7E
037CC:  MOVLB  0
037CE:  CALL   1394
037D2:  MOVLW  0D
037D4:  MOVLB  2
037D6:  MOVWF  x08
037D8:  MOVLB  0
037DA:  CALL   09C4
037DE:  MOVLW  0A
037E0:  MOVLB  2
037E2:  MOVWF  x08
037E4:  MOVLB  0
037E6:  CALL   09C4
....................             break;
037EA:  GOTO   37EE
....................         }
....................     }
037EE:  GOTO   381E (RETURN)
.................... }
.................... 
.................... // еӨүжӣҙ: и§ЈжһҗжёҲгҒҝгҒ®гӮігғһгғігғүгӮ’еј•ж•°гҒЁгҒ—гҒҰеҸ—гҒ‘еҸ–гӮӢ
.................... void execute_mission_command(Command* cmd)
037F2:  MOVLB  1
037F4:  MOVF   x5C,W
037F6:  MOVWF  FE9
037F8:  MOVF   x5D,W
037FA:  MOVWF  FEA
037FC:  MOVFF  FEF,15E
.................... {
....................     uint8_t frame_id = cmd->frame_id;
.................... 
....................     // 1. гӮігғһгғігғүгӮ’еҸ—зҗҶгҒ—гҒҹгҒ“гҒЁгӮ’BOSS(гӮ·гғҹгғҘгғ¬гғјгӮҝ)гҒ«зҹҘгӮүгҒӣгӮӢ
....................     transmit_ack();
03800:  MOVLB  0
03802:  GOTO   2810
.................... 
....................     // 2. гӮігғһгғігғүеҸ—дҝЎгғӯгӮ°гӮ’иЁҳйҢІ (0x10 гҒҜд»®гҒ®гӮігғһгғігғүеҸ—дҝЎгӮӨгғҷгғігғҲID)
....................     piclog_make(0x10, frame_id);
03806:  MOVLW  10
03808:  MOVLB  1
0380A:  MOVWF  x64
0380C:  MOVFF  15E,165
03810:  MOVLB  0
03812:  CALL   1F8A
.................... 
....................     // 3. гӮігғһгғігғүгҒ«еҝңгҒҳгҒҹеҮҰзҗҶ(иЁҲжё¬й–Ӣе§ӢгҒӘгҒ©)гҒёеҲҶеІҗ
....................     process_boss_command(frame_id);
03816:  MOVFF  15E,15F
0381A:  GOTO   370A
0381E:  GOTO   3C48 (RETURN)
.................... }
.................... 
.................... #include "../application/mission/son_tmp_mode_mission.c"
.................... #include "son_tmp_mode_mission.h"
.................... #ifndef son_tmp_MODE_MISSION_H
.................... #define son_tmp_MODE_MISSION_H
.................... 
.................... #include <stdint.h>
.................... #include "../../system/son_tmp_config.h"
.................... 
.................... // ============================================================================
.................... // еӨ–йғЁе…¬й–Ӣй–ўж•°гғ—гғӯгғҲгӮҝгӮӨгғ—
.................... // ============================================================================
.................... 
.................... // гғҹгғғгӮ·гғ§гғігҒ®е…ЁдҪ“гӮ·гғјгӮұгғігӮ№гӮ’е®ҹиЎҢгҒҷгӮӢ
.................... // гҒ“гҒ“гҒӢгӮү core/measurement/son_tmp_strain.c гҒ®иЁҲжё¬й–ўж•°гӮ’е‘јгҒіеҮәгҒҷ
.................... void execute_mission_sequence(void);
.................... 
.................... #endif // son_tmp_MODE_MISSION_H
.................... 
.................... #include "../../core/measurement/son_tmp_strain.h"
.................... #ifndef son_tmp_strain_H
.................... #define son_tmp_strain_H
.................... 
.................... #include <stdint.h>
.................... #include <stdbool.h>
.................... #include "../../system/son_tmp_config.h"
.................... 
.................... // ============================================================================
.................... // еӨ–йғЁе…¬й–Ӣй–ўж•°гғ—гғӯгғҲгӮҝгӮӨгғ—
.................... // ============================================================================
.................... 
.................... // гғҡгғӘгғ•гӮ§гғ©гғ«гҒ®еҲқжңҹеҢ– (гғ”гғігҒ®еҮәеҠӣиЁӯе®ҡгҒӘгҒ©)
.................... void io_init(void);
.................... 
.................... // гӮўгғҠгғӯгӮ°гӮ№гӮӨгғғгғҒгҒ®еҲҮгӮҠжӣҝгҒҲ (0гҖң3гғҒгғЈгғігғҚгғ«)
.................... void switch_channel(uint8_t ch);
.................... 
.................... // LTC2452гҒӢгӮү16bitгҒ®ADCеҖӨгӮ’иӘӯгҒҝеҸ–гӮӢ
.................... uint16_t read_adc_ltc2452(void);
.................... 
.................... // иЁҲжё¬гӮ·гғјгӮұгғігӮ№гҒ®е®ҹиЎҢгҒЁFlashгҒёгҒ®дҝқеӯҳ (IVгғҮгғјгӮҝ пјӢ жё©еәҰгғҮгғјгӮҝгӮ’йҖЈз¶ҡе®ҹиЎҢ)
.................... // mode: еӢ•дҪңгғўгғјгғү
.................... // channel: жё¬е®ҡгғҒгғЈгғігғҚгғ« (MAX4734EUB+ гҒ®йҒёжҠһ)
.................... // samplingRate: гӮөгғігғ—гғӘгғігӮ°гғ¬гғјгғҲиЁӯе®ҡеҖӨ
.................... void execute_measurement(uint8_t mode, uint8_t channel, uint8_t samplingRate);
.................... 
.................... #endif // son_tmp_strain_H
.................... 
.................... #include "../../core/logging/son_tmp_piclog.h"
.................... #ifndef son_tmp_PICLOG_H
.................... #define son_tmp_PICLOG_H
.................... 
.................... #include <stdint.h>
.................... #include <string.h>
.................... 
.................... // ============================================================================
.................... // PICLOG е®ҡж•°е®ҡзҫ©
.................... // ============================================================================
.................... #define PICLOG_STARTUP     0x00
.................... #define PICLOG_PARAM_START 0x00
.................... #define PICLOG_PARAM_END   0xFF
.................... 
.................... #define PICLOG_PACKET_SIZE 6
.................... #define PICLOG_BLANK_SIZE  4
.................... 
.................... // ============================================================================
.................... // PICLOG гғҮгғјгӮҝж§ӢйҖ дҪ“ (6 Byte)
.................... // ============================================================================
.................... typedef union
.................... {
....................     struct
....................     {
....................         uint32_t time;       // 4 Byte: гӮҝгӮӨгғ гӮ№гӮҝгғігғ—
....................         uint8_t  function;   // 1 Byte: е®ҹиЎҢй–ўж•°гғ»гӮӨгғҷгғігғҲID
....................         uint8_t  parameter;  // 1 Byte: гғ‘гғ©гғЎгғјгӮҝгғ»зҠ¶ж…Ӣ
....................     } fields;
....................     uint8_t bytes[PICLOG_PACKET_SIZE];
.................... } PICLOG_t;
.................... 
.................... // ============================================================================
.................... // еӨ–йғЁе…¬й–Ӣй–ўж•°гғ—гғӯгғҲгӮҝгӮӨгғ—
.................... // ============================================================================
.................... 
.................... // гғӯгӮ°гӮ’дҪңжҲҗгҒ—гҖҒгғ•гғ©гғғгӮ·гғҘгғЎгғўгғӘгҒ«жӣёгҒҚиҫјгӮҖ
.................... // function: гӮӨгғҷгғігғҲID
.................... // parameter: зҠ¶ж…Ӣгғ‘гғ©гғЎгғјгӮҝ
.................... void piclog_make(uint8_t function, uint8_t parameter);
.................... 
.................... #endif // son_tmp_PICLOG_H
.................... 
.................... #include "son_tmp_excute_mission.h"
.................... #ifndef SON_TMP_EXCUTE_MISSION_H
.................... #define SON_TMP_EXCUTE_MISSION_H
.................... 
.................... #include <stdint.h>
.................... #include <stdbool.h>
.................... 
.................... #include "../../system/son_tmp_config.h"
.................... #include "../../../lib/communication/value_status.h"
.................... #include "../../../lib/communication/typedef_content.h" // Commandж§ӢйҖ дҪ“гӮ’дҪҝгҒҶгҒҹгӮҒгҒ«иҝҪеҠ 
.................... 
.................... // ============================================================================
.................... // й–ўж•°гғ—гғӯгғҲгӮҝгӮӨгғ—
.................... // ============================================================================
.................... void cigs_system_init(void);
.................... 
.................... // гғҗгғғгғ•гӮЎгӮ’зӣҙжҺҘиӘӯгӮҖгҒ®гҒ§гҒҜгҒӘгҒҸгҖҒи§ЈжһҗжёҲгҒҝгҒ®CommandгӮ’еј•ж•°гҒ§еҸ—гҒ‘еҸ–гӮӢгӮҲгҒҶгҒ«еӨүжӣҙ
.................... void execute_mission_command(Command* cmd);
.................... 
.................... #endif // SON_TMP_EXCUTE_MISSION_H
.................... 
.................... 
.................... // ============================================================================
.................... // гғҹгғғгӮ·гғ§гғіе®ҹиЎҢгӮ·гғјгӮұгғігӮ№
.................... // ============================================================================
.................... 
.................... void execute_mission_sequence(void)
.................... {
....................     fprintf(PC, "--- Mission Sequence Start ---\r\n");
*
02FCE:  MOVLW  52
02FD0:  MOVWF  FF6
02FD2:  MOVLW  07
02FD4:  MOVWF  FF7
02FD6:  MOVLW  00
02FD8:  MOVWF  FF8
02FDA:  CALL   0A16
.................... 
....................     // гғҹгғғгӮ·гғ§гғій–Ӣе§ӢгғӯгӮ°гҒ®иЁҳйҢІ (гӮӨгғҷгғігғҲID: 0x11, гғ‘гғ©гғЎгғјгӮҝ: 0x00 гҒЁд»®е®ҡ)
....................     piclog_make(0x11, 0x00);
02FDE:  MOVLW  11
02FE0:  MOVLB  1
02FE2:  MOVWF  x64
02FE4:  CLRF   x65
02FE6:  MOVLB  0
02FE8:  CALL   1F8A
.................... 
....................     // гӮўгғҠгғӯгӮ°гӮ№гӮӨгғғгғҒ(MAX4734EUB+)гҒ§йҒёжҠһеҸҜиғҪгҒӘгғҒгғЈгғігғҚгғ« (0гҖң3)
....................     uint8_t num_channels = 4;
.................... 
....................     // гӮөгғігғ—гғӘгғігӮ°гғ¬гғјгғҲиЁӯе®ҡ (дҫӢгҒЁгҒ—гҒҰ 0x01 гӮ’жҢҮе®ҡ)
....................     uint8_t samplingRate = 0x01;
.................... 
....................     // зҸҫеңЁгҒ®еӢ•дҪңгғўгғјгғү (дҫӢгҒЁгҒ—гҒҰйҖҡеёёиЁҲжё¬гғўгғјгғү: 0x01 гӮ’жҢҮе®ҡ)
....................     uint8_t mode = 0x01;
02FEC:  MOVLW  04
02FEE:  MOVLB  1
02FF0:  MOVWF  x60
02FF2:  MOVLW  01
02FF4:  MOVWF  x61
02FF6:  MOVLW  01
02FF8:  MOVWF  x62
.................... 
....................     // е…ЁгғҒгғЈгғігғҚгғ«гӮ’й Ҷз•ӘгҒ«иЁҲжё¬гҒҷгӮӢгӮ·гғҠгғӘгӮӘ
....................     for (uint8_t ch = 0; ch < num_channels; ch++)
02FFA:  CLRF   x63
02FFC:  MOVLB  0
02FFE:  MOVLB  1
03000:  MOVF   x60,W
03002:  SUBWF  x63,W
03004:  BTFSS  FD8.0
03006:  BRA    300E
03008:  MOVLB  0
0300A:  GOTO   3076
0300E:  MOVLB  0
....................     {
....................         fprintf(PC, "Executing Channel: %u\r\n", ch);
03010:  MOVLW  74
03012:  MOVWF  FF6
03014:  MOVLW  07
03016:  MOVWF  FF7
03018:  MOVLW  00
0301A:  MOVWF  FF8
0301C:  MOVLW  13
0301E:  MOVLB  2
03020:  MOVWF  x04
03022:  MOVLB  0
03024:  CALL   0A46
03028:  MOVFF  163,204
0302C:  MOVLW  1B
0302E:  MOVLB  2
03030:  MOVWF  x05
03032:  MOVLB  0
03034:  CALL   286E
03038:  MOVLW  0D
0303A:  MOVLB  2
0303C:  MOVWF  x08
0303E:  MOVLB  0
03040:  CALL   09C4
03044:  MOVLW  0A
03046:  MOVLB  2
03048:  MOVWF  x08
0304A:  MOVLB  0
0304C:  CALL   09C4
.................... 
....................         // iv.c еҒҙгҒ®иЁҲжё¬еҮҰзҗҶгӮ’е‘јгҒіеҮәгҒ—пјҲеҶ…йғЁгҒ§жё©еәҰиЁҲжё¬гӮӮйҖЈз¶ҡгҒ—гҒҰе‘јгҒ°гӮҢгӮӢпјү
....................         execute_measurement(mode, ch, samplingRate);
03050:  MOVFF  162,164
03054:  MOVFF  163,165
03058:  MOVFF  161,166
0305C:  GOTO   2C8A
.................... 
....................         // гғҒгғЈгғігғҚгғ«еҲҮгӮҠжӣҝгҒҲй–“гҒ®гӮӨгғігӮҝгғјгғҗгғ«
....................         delay_ms(100);
03060:  MOVLW  64
03062:  MOVLB  2
03064:  MOVWF  x1C
03066:  MOVLB  0
03068:  CALL   0996
0306C:  MOVLB  1
0306E:  INCF   x63,F
03070:  MOVLB  0
03072:  GOTO   2FFE
....................     }
.................... 
....................     // гғҹгғғгӮ·гғ§гғізөӮдәҶгғӯгӮ°гҒ®иЁҳйҢІ (гӮӨгғҷгғігғҲID: 0x12, гғ‘гғ©гғЎгғјгӮҝ: 0x00 гҒЁд»®е®ҡ)
....................     piclog_make(0x12, 0x00);
03076:  MOVLW  12
03078:  MOVLB  1
0307A:  MOVWF  x64
0307C:  CLRF   x65
0307E:  MOVLB  0
03080:  CALL   1F8A
.................... 
....................     // гғҹгғғгӮ·гғ§гғіе®ҢдәҶеҫҢгҖҒгӮ№гғҶгғјгӮҝгӮ№гӮ’IDLEгҒ«жҲ»гҒҷ
....................     //status = IDLE;
.................... 
....................     // TODO: еҝ…иҰҒгҒ§гҒӮгӮҢгҒ°гҒ“гҒ“гҒ§BOSSгҒёе®ҢдәҶеҝңзӯ”(RES_MISSION_DONE)гӮ’йҖҒдҝЎгҒҷгӮӢеҮҰзҗҶгӮ’иҝҪеҠ 
.................... 
....................     fprintf(PC, "--- Mission Sequence Complete ---\r\n");
03084:  MOVLW  8C
03086:  MOVWF  FF6
03088:  MOVLW  07
0308A:  MOVWF  FF7
0308C:  MOVLW  00
0308E:  MOVWF  FF8
03090:  CALL   0A16
03094:  GOTO   3784 (RETURN)
.................... }
.................... 
.................... #include "../application/mission/son_tmp_mode_flash.c"
.................... #include "son_tmp_mode_flash.h"
.................... #ifndef son_tmp_MODE_FLASH_H
.................... #define son_tmp_MODE_FLASH_H
.................... 
.................... #include <stdint.h>
.................... #include "../../system/son_tmp_config.h"
.................... 
.................... // ============================================================================
.................... // еӨ–йғЁе…¬й–Ӣй–ўж•°гғ—гғӯгғҲгӮҝгӮӨгғ—
.................... // ============================================================================
.................... 
.................... // SMFи»ўйҖҒжә–еӮҷ (CMD_SMF_PREPARE еҸ—дҝЎжҷӮгҒ«е®ҹиЎҢ)
.................... void prepare_smf_transfer(void);
.................... 
.................... // SMFгғҮгғјгӮҝи»ўйҖҒе®ҹиЎҢ (REQ_SMF_COPY еҸ—дҝЎжҷӮгҒ«е®ҹиЎҢ)
.................... void execute_smf_transfer(void);
.................... 
.................... // SMFи»ўйҖҒе®ҢдәҶиЁұеҸҜ (CMD_SMF_PERMIT еҸ—дҝЎжҷӮгҒ«е®ҹиЎҢ)
.................... void permit_smf_transfer(void);
.................... 
.................... #endif // son_tmp_MODE_FLASH_H
.................... 
.................... #include "son_tmp_excute_mission.h"
.................... #ifndef SON_TMP_EXCUTE_MISSION_H
.................... #define SON_TMP_EXCUTE_MISSION_H
.................... 
.................... #include <stdint.h>
.................... #include <stdbool.h>
.................... 
.................... #include "../../system/son_tmp_config.h"
.................... #include "../../../lib/communication/value_status.h"
.................... #include "../../../lib/communication/typedef_content.h" // Commandж§ӢйҖ дҪ“гӮ’дҪҝгҒҶгҒҹгӮҒгҒ«иҝҪеҠ 
.................... 
.................... // ============================================================================
.................... // й–ўж•°гғ—гғӯгғҲгӮҝгӮӨгғ—
.................... // ============================================================================
.................... void cigs_system_init(void);
.................... 
.................... // гғҗгғғгғ•гӮЎгӮ’зӣҙжҺҘиӘӯгӮҖгҒ®гҒ§гҒҜгҒӘгҒҸгҖҒи§ЈжһҗжёҲгҒҝгҒ®CommandгӮ’еј•ж•°гҒ§еҸ—гҒ‘еҸ–гӮӢгӮҲгҒҶгҒ«еӨүжӣҙ
.................... void execute_mission_command(Command* cmd);
.................... 
.................... #endif // SON_TMP_EXCUTE_MISSION_H
.................... 
.................... #include "../../core/logging/son_tmp_piclog.h"
.................... #ifndef son_tmp_PICLOG_H
.................... #define son_tmp_PICLOG_H
.................... 
.................... #include <stdint.h>
.................... #include <string.h>
.................... 
.................... // ============================================================================
.................... // PICLOG е®ҡж•°е®ҡзҫ©
.................... // ============================================================================
.................... #define PICLOG_STARTUP     0x00
.................... #define PICLOG_PARAM_START 0x00
.................... #define PICLOG_PARAM_END   0xFF
.................... 
.................... #define PICLOG_PACKET_SIZE 6
.................... #define PICLOG_BLANK_SIZE  4
.................... 
.................... // ============================================================================
.................... // PICLOG гғҮгғјгӮҝж§ӢйҖ дҪ“ (6 Byte)
.................... // ============================================================================
.................... typedef union
.................... {
....................     struct
....................     {
....................         uint32_t time;       // 4 Byte: гӮҝгӮӨгғ гӮ№гӮҝгғігғ—
....................         uint8_t  function;   // 1 Byte: е®ҹиЎҢй–ўж•°гғ»гӮӨгғҷгғігғҲID
....................         uint8_t  parameter;  // 1 Byte: гғ‘гғ©гғЎгғјгӮҝгғ»зҠ¶ж…Ӣ
....................     } fields;
....................     uint8_t bytes[PICLOG_PACKET_SIZE];
.................... } PICLOG_t;
.................... 
.................... // ============================================================================
.................... // еӨ–йғЁе…¬й–Ӣй–ўж•°гғ—гғӯгғҲгӮҝгӮӨгғ—
.................... // ============================================================================
.................... 
.................... // гғӯгӮ°гӮ’дҪңжҲҗгҒ—гҖҒгғ•гғ©гғғгӮ·гғҘгғЎгғўгғӘгҒ«жӣёгҒҚиҫјгӮҖ
.................... // function: гӮӨгғҷгғігғҲID
.................... // parameter: зҠ¶ж…Ӣгғ‘гғ©гғЎгғјгӮҝ
.................... void piclog_make(uint8_t function, uint8_t parameter);
.................... 
.................... #endif // son_tmp_PICLOG_H
.................... 
.................... #include "../../core/storage/son_tmp_smf.h"
.................... #ifndef son_tmp_SMF_H
.................... #define son_tmp_SMF_H
.................... 
.................... #include <stdint.h>
.................... #include "../../system/son_tmp_config.h"
.................... 
.................... // ============================================================================
.................... // еӨ–йғЁе…¬й–Ӣй–ўж•°гғ—гғӯгғҲгӮҝгӮӨгғ—
.................... // ============================================================================
.................... 
.................... // SMFгҒёгҒ®и»ўйҖҒжә–еӮҷпјҲгӮўгғүгғ¬гӮ№гҒЁгӮөгӮӨгӮәгҒ®иЁҲз®—пјү
.................... void cigs_smf_prepare(void);
.................... 
.................... // MIS_FMгҒӢгӮүгғҮгғјгӮҝгӮ’иӘӯгҒҝеҮәгҒ—гҖҒSMF(CPLD)гҒёSPIйҖҒдҝЎ
.................... void cigs_smf_copy(void);
.................... 
.................... // и»ўйҖҒе®ҢдәҶгӮ’зўәиӘҚгҒ—гҖҒгғ•гғ©гғғгӮ·гғҘгҒ®гӮ«гӮҰгғігӮҝгӮ’жӣҙж–°
.................... void cigs_smf_permit(void);
.................... 
.................... #endif // son_tmp_SMF_H
.................... 
.................... 
.................... // ============================================================================
.................... // SMFпјҲCPLDзөҢз”ұпјүи»ўйҖҒгӮ·гғјгӮұгғігӮ№
.................... // ============================================================================
.................... 
.................... void prepare_smf_transfer(void)
.................... {
....................     fprintf(PC, "--- SMF Transfer Prepare ---\r\n");
*
03430:  MOVLW  B0
03432:  MOVWF  FF6
03434:  MOVLW  07
03436:  MOVWF  FF7
03438:  MOVLW  00
0343A:  MOVWF  FF8
0343C:  CALL   0A16
.................... 
....................     // жә–еӮҷй–Ӣе§ӢгҒ®гғӯгӮ°иЁҳйҢІ (гӮӨгғҷгғігғҲID: 0x20, гғ‘гғ©гғЎгғјгӮҝ: 0x00 гҒЁд»®е®ҡ)
....................     piclog_make(0x20, 0x00);
03440:  MOVLW  20
03442:  MOVLB  1
03444:  MOVWF  x64
03446:  CLRF   x65
03448:  MOVLB  0
0344A:  CALL   1F8A
.................... 
....................     // зҠ¶ж…ӢгӮ’ COPYING гҒ«йҒ·з§» (excute_mission.c еҒҙгҒ§гӮӮйҒ·з§»жёҲгҒҝгҒ гҒҢеҝөгҒ®гҒҹгӮҒ)
....................     //status = COPYING;
.................... 
....................     // TODO: cigs_smf.c еҒҙгҒ®и»ўйҖҒжә–еӮҷеҮҰзҗҶпјҲи»ўйҖҒе…Ҳй ӯгӮўгғүгғ¬гӮ№гҒ®иЁҲз®—гӮ„гӮӯгғҘгғјгҒ®жә–еӮҷпјүгӮ’е‘јгҒіеҮәгҒҷ
....................     // cigs_smf_prepare();
....................     cigs_smf_prepare();
0344E:  GOTO   3274
03452:  GOTO   3790 (RETURN)
.................... }
.................... 
.................... void execute_smf_transfer(void)
.................... {
....................     fprintf(PC, "--- SMF Transfer Execute ---\r\n");
*
03636:  MOVLW  D0
03638:  MOVWF  FF6
0363A:  MOVLW  07
0363C:  MOVWF  FF7
0363E:  MOVLW  00
03640:  MOVWF  FF8
03642:  CALL   0A16
.................... 
....................     // и»ўйҖҒй–Ӣе§ӢгҒ®гғӯгӮ°иЁҳйҢІ (гӮӨгғҷгғігғҲID: 0x21, гғ‘гғ©гғЎгғјгӮҝ: 0x00 гҒЁд»®е®ҡ)
....................     piclog_make(0x21, 0x00);
03646:  MOVLW  21
03648:  MOVLB  1
0364A:  MOVWF  x64
0364C:  CLRF   x65
0364E:  MOVLB  0
03650:  CALL   1F8A
.................... 
....................     cigs_smf_copy();
03654:  GOTO   3456
03658:  GOTO   3798 (RETURN)
.................... }
.................... 
.................... void permit_smf_transfer(void)
.................... {
....................     fprintf(PC, "--- SMF Transfer Permit ---\r\n");
*
036D0:  MOVLW  F0
036D2:  MOVWF  FF6
036D4:  MOVLW  07
036D6:  MOVWF  FF7
036D8:  MOVLW  00
036DA:  MOVWF  FF8
036DC:  CALL   0A16
.................... 
....................     // иЁұеҸҜгҒ®гғӯгӮ°иЁҳйҢІ (гӮӨгғҷгғігғҲID: 0x22, гғ‘гғ©гғЎгғјгӮҝ: 0x00 гҒЁд»®е®ҡ)
....................     piclog_make(0x22, 0x00);
036E0:  MOVLW  22
036E2:  MOVLB  1
036E4:  MOVWF  x64
036E6:  CLRF   x65
036E8:  MOVLB  0
036EA:  CALL   1F8A
.................... 
....................     cigs_smf_permit();
036EE:  GOTO   365C
.................... 
....................     // дёҖйҖЈгҒ®и»ўйҖҒгӮ·гғјгӮұгғігӮ№гҒҢе®ҢдәҶгҒ—гҒҹгҒҹгӮҒгҖҒгӮ·гӮ№гғҶгғ зҠ¶ж…ӢгӮ’ IDLE гҒ«жҲ»гҒҷ
....................     status = IDLE;
036F2:  MOVLW  03
036F4:  MOVWF  40
.................... 
....................     fprintf(PC, "--- SMF Transfer Sequence Complete ---\r\n");
036F6:  MOVLW  0E
036F8:  MOVWF  FF6
036FA:  MOVLW  08
036FC:  MOVWF  FF7
036FE:  MOVLW  00
03700:  MOVWF  FF8
03702:  CALL   0A16
03706:  GOTO   37A0 (RETURN)
.................... }
.................... 
.................... 
.................... #endif // son_tmp_MAIN_H
.................... //------------------End of File------------------
.................... 
.................... 
.................... void main()
*
03822:  CLRF   FF8
03824:  BCF    FD0.7
03826:  BSF    07.7
03828:  CLRF   F9B
0382A:  CLRF   F64
0382C:  CLRF   F65
0382E:  CLRF   F66
03830:  MOVLW  02
03832:  MOVWF  FD3
03834:  BCF    F98.0
03836:  BSF    F8F.0
03838:  BCF    F95.1
0383A:  BSF    F8C.1
0383C:  BSF    F93.5
0383E:  BCF    F93.4
03840:  BCF    F93.2
03842:  BCF    F8A.2
03844:  BSF    F95.6
03846:  BCF    F95.7
03848:  BCF    F95.5
0384A:  BCF    F8C.5
0384C:  CLRF   1E
0384E:  CLRF   1D
03850:  CLRF   1C
03852:  CLRF   1B
03854:  MOVLB  1
03856:  CLRF   x40
03858:  CLRF   x42
0385A:  CLRF   x41
0385C:  CLRF   3F
0385E:  CLRF   40
03860:  BCF    41.0
03862:  MOVLB  E
03864:  CLRF   xD9
03866:  CLRF   xDA
03868:  CLRF   xCE
0386A:  CLRF   xCF
0386C:  CLRF   xD0
0386E:  CLRF   xD1
03870:  CLRF   xD2
03872:  CLRF   xD3
03874:  CLRF   xD4
03876:  CLRF   xD5
03878:  CLRF   x45
0387A:  CLRF   x46
0387C:  CLRF   x47
0387E:  BCF    x8D.7
03880:  BCF    x8D.6
03882:  BCF    x8D.5
03884:  MOVLB  F
03886:  CLRF   x53
03888:  CLRF   x38
0388A:  CLRF   x37
0388C:  MOVLB  0
0388E:  CLRF   42
03890:  CLRF   43
03892:  CLRF   44
03894:  CLRF   45
03896:  CLRF   46
03898:  CLRF   47
0389A:  CLRF   48
0389C:  CLRF   49
0389E:  CLRF   4A
038A0:  CLRF   4B
038A2:  CLRF   4C
038A4:  CLRF   4D
038A6:  CLRF   4E
038A8:  CLRF   4F
038AA:  CLRF   50
038AC:  CLRF   51
038AE:  CLRF   52
038B0:  CLRF   53
038B2:  CLRF   54
038B4:  CLRF   55
038B6:  CLRF   56
038B8:  CLRF   57
038BA:  CLRF   58
038BC:  CLRF   59
038BE:  CLRF   5A
038C0:  CLRF   5B
038C2:  CLRF   5C
038C4:  CLRF   5D
038C6:  CLRF   5E
038C8:  CLRF   5F
038CA:  CLRF   x60
038CC:  CLRF   x61
038CE:  CLRF   x62
038D0:  CLRF   x63
038D2:  CLRF   x64
038D4:  CLRF   x65
038D6:  CLRF   x66
038D8:  CLRF   x67
038DA:  CLRF   x68
038DC:  CLRF   x69
038DE:  CLRF   x6A
038E0:  CLRF   x6B
038E2:  CLRF   x6C
038E4:  CLRF   x6D
038E6:  CLRF   x6E
038E8:  CLRF   x6F
038EA:  CLRF   x70
038EC:  CLRF   x71
038EE:  CLRF   x72
038F0:  CLRF   x73
038F2:  CLRF   x74
038F4:  CLRF   x75
038F6:  CLRF   x76
038F8:  CLRF   x77
038FA:  CLRF   x78
038FC:  CLRF   x79
038FE:  CLRF   x7A
03900:  CLRF   x7B
03902:  CLRF   x7C
03904:  CLRF   x7D
03906:  CLRF   x7E
03908:  CLRF   x7F
0390A:  CLRF   x80
0390C:  CLRF   x81
0390E:  CLRF   x82
03910:  CLRF   x83
03912:  CLRF   x84
03914:  CLRF   x85
03916:  CLRF   x86
03918:  CLRF   x87
0391A:  CLRF   x88
0391C:  CLRF   x89
0391E:  CLRF   x8A
03920:  CLRF   x8B
03922:  CLRF   x8C
03924:  CLRF   x8D
03926:  CLRF   x8E
03928:  CLRF   x8F
0392A:  CLRF   x90
0392C:  CLRF   x91
0392E:  CLRF   x92
03930:  CLRF   x93
03932:  CLRF   x94
03934:  CLRF   x95
03936:  CLRF   x96
03938:  CLRF   x97
0393A:  CLRF   x98
0393C:  CLRF   x99
0393E:  CLRF   x9A
03940:  CLRF   x9B
03942:  CLRF   x9C
03944:  CLRF   x9D
03946:  CLRF   x9E
03948:  CLRF   x9F
0394A:  CLRF   xA0
0394C:  CLRF   xA1
0394E:  CLRF   xA2
03950:  CLRF   xA3
03952:  CLRF   xA4
03954:  CLRF   xA5
03956:  CLRF   xA6
03958:  CLRF   xA7
0395A:  CLRF   xA8
0395C:  CLRF   xA9
0395E:  CLRF   xAA
03960:  CLRF   xAB
03962:  CLRF   xAC
03964:  CLRF   xAD
03966:  CLRF   xAE
03968:  CLRF   xAF
0396A:  CLRF   xB0
0396C:  CLRF   xB1
0396E:  CLRF   xB2
03970:  CLRF   xB3
03972:  CLRF   xB4
03974:  CLRF   xB5
03976:  CLRF   xB6
03978:  CLRF   xB7
0397A:  CLRF   xB8
0397C:  CLRF   xB9
0397E:  CLRF   xBA
03980:  CLRF   xBB
03982:  CLRF   xBC
03984:  CLRF   xBD
03986:  CLRF   xBE
03988:  CLRF   xBF
0398A:  CLRF   xC0
0398C:  CLRF   xC1
0398E:  CLRF   xC2
03990:  CLRF   xC3
03992:  CLRF   xC4
03994:  CLRF   xC5
03996:  CLRF   xC6
03998:  CLRF   xC7
0399A:  CLRF   xC8
0399C:  CLRF   xC9
0399E:  CLRF   xCA
039A0:  CLRF   xCB
039A2:  CLRF   xCC
039A4:  CLRF   xCD
039A6:  CLRF   xCE
039A8:  CLRF   xCF
039AA:  CLRF   xD0
039AC:  CLRF   xD1
039AE:  CLRF   xD2
039B0:  CLRF   xD3
039B2:  CLRF   xD4
039B4:  CLRF   xD5
039B6:  CLRF   xD6
039B8:  CLRF   xD7
039BA:  CLRF   xD8
039BC:  CLRF   xD9
039BE:  CLRF   xDA
039C0:  CLRF   xDB
039C2:  CLRF   xDC
039C4:  CLRF   xDD
039C6:  CLRF   xDE
039C8:  CLRF   xDF
039CA:  CLRF   xE0
039CC:  CLRF   xE1
039CE:  CLRF   xE2
039D0:  CLRF   xE3
039D2:  CLRF   xE4
039D4:  CLRF   xE5
039D6:  CLRF   xE6
039D8:  CLRF   xE7
039DA:  CLRF   xE8
039DC:  CLRF   xE9
039DE:  CLRF   xEA
039E0:  CLRF   xEB
039E2:  CLRF   xEC
039E4:  CLRF   xED
039E6:  CLRF   xEE
039E8:  CLRF   xEF
039EA:  CLRF   xF0
039EC:  CLRF   xF1
039EE:  CLRF   xF2
039F0:  CLRF   xF3
039F2:  CLRF   xF4
039F4:  CLRF   xF5
039F6:  CLRF   xF6
039F8:  CLRF   xF7
039FA:  CLRF   xF8
039FC:  CLRF   xF9
039FE:  CLRF   xFA
03A00:  CLRF   xFB
03A02:  CLRF   xFC
03A04:  CLRF   xFD
03A06:  CLRF   xFE
03A08:  CLRF   xFF
03A0A:  MOVLB  1
03A0C:  CLRF   x00
03A0E:  CLRF   x01
03A10:  CLRF   x02
03A12:  CLRF   x03
03A14:  CLRF   x04
03A16:  CLRF   x05
03A18:  MOVLW  09
03A1A:  MOVWF  x06
03A1C:  MOVLW  7C
03A1E:  MOVWF  x07
03A20:  MOVLW  01
03A22:  MOVWF  x08
03A24:  MOVLW  01
03A26:  MOVWF  x09
03A28:  MOVLW  1C
03A2A:  MOVWF  x0A
03A2C:  MOVLW  7C
03A2E:  MOVWF  x0B
03A30:  CLRF   x0C
03A32:  MOVLW  09
03A34:  MOVWF  x0D
03A36:  MOVLW  01
03A38:  MOVWF  x0E
03A3A:  CLRF   x0F
03A3C:  MOVLW  02
03A3E:  MOVWF  x10
03A40:  MOVLW  01
03A42:  MOVWF  x11
03A44:  CLRF   x12
03A46:  CLRF   x13
03A48:  CLRF   1F
03A4A:  CLRF   20
03A4C:  CLRF   21
03A4E:  CLRF   22
03A50:  CLRF   23
03A52:  CLRF   24
03A54:  CLRF   25
03A56:  CLRF   26
03A58:  CLRF   27
03A5A:  CLRF   28
03A5C:  CLRF   29
03A5E:  CLRF   2A
03A60:  CLRF   2B
03A62:  CLRF   2C
03A64:  CLRF   2D
03A66:  CLRF   2E
03A68:  CLRF   2F
03A6A:  CLRF   30
03A6C:  CLRF   31
03A6E:  CLRF   32
03A70:  CLRF   33
03A72:  CLRF   34
03A74:  CLRF   35
03A76:  CLRF   36
03A78:  CLRF   37
03A7A:  CLRF   38
03A7C:  CLRF   39
03A7E:  CLRF   3A
03A80:  CLRF   3B
03A82:  CLRF   3C
03A84:  CLRF   3D
03A86:  CLRF   3E
03A88:  CLRF   x43
03A8A:  CLRF   x44
03A8C:  CLRF   x45
03A8E:  CLRF   x46
03A90:  CLRF   x47
03A92:  CLRF   x48
03A94:  CLRF   x49
03A96:  CLRF   x4A
03A98:  CLRF   x4B
03A9A:  CLRF   x4C
03A9C:  CLRF   x4D
03A9E:  CLRF   x4E
03AA0:  MOVLW  01
03AA2:  MOVWF  x14
03AA4:  CLRF   x15
03AA6:  CLRF   x16
03AA8:  CLRF   x17
03AAA:  CLRF   x18
03AAC:  CLRF   x19
03AAE:  CLRF   x1A
03AB0:  CLRF   x1B
03AB2:  CLRF   x1C
03AB4:  CLRF   x1D
03AB6:  CLRF   x1E
03AB8:  MOVLW  02
03ABA:  MOVWF  x1F
03ABC:  CLRF   x20
03ABE:  CLRF   x21
03AC0:  CLRF   x22
03AC2:  CLRF   x23
03AC4:  CLRF   x24
03AC6:  CLRF   x25
03AC8:  CLRF   x26
03ACA:  CLRF   x27
03ACC:  CLRF   x28
03ACE:  CLRF   x29
03AD0:  MOVLW  03
03AD2:  MOVWF  x2A
03AD4:  CLRF   x2B
03AD6:  CLRF   x2C
03AD8:  CLRF   x2D
03ADA:  CLRF   x2E
03ADC:  CLRF   x2F
03ADE:  CLRF   x30
03AE0:  CLRF   x31
03AE2:  CLRF   x32
03AE4:  CLRF   x33
03AE6:  CLRF   x34
03AE8:  MOVLW  04
03AEA:  MOVWF  x35
03AEC:  CLRF   x36
03AEE:  CLRF   x37
03AF0:  CLRF   x38
03AF2:  CLRF   x39
03AF4:  CLRF   x3A
03AF6:  CLRF   x3B
03AF8:  CLRF   x3C
03AFA:  CLRF   x3D
03AFC:  CLRF   x3E
03AFE:  CLRF   x3F
03B00:  MOVLB  0
.................... {
....................     delay_ms(100); // wait for power stable
03B02:  MOVLW  64
03B04:  MOVLB  2
03B06:  MOVWF  x1C
03B08:  MOVLB  0
03B0A:  CALL   0996
....................     fprintf(PC,"\r\n\r\n\r\n============================================================\r\n");
03B0E:  MOVLW  38
03B10:  MOVWF  FF6
03B12:  MOVLW  08
03B14:  MOVWF  FF7
03B16:  MOVLW  00
03B18:  MOVWF  FF8
03B1A:  CALL   0A16
....................     fprintf(PC,"This is MOMIJI CIGS PIC BBM for MIS7_BBM4.\r\n");
03B1E:  MOVLW  7E
03B20:  MOVWF  FF6
03B22:  MOVLW  08
03B24:  MOVWF  FF7
03B26:  MOVLW  00
03B28:  MOVWF  FF8
03B2A:  CALL   0A16
....................     fprintf(PC,"Last updated on %s %s, by Inoue.\r\n\r\n", __DATE__, __TIME__);
03B2E:  MOVLW  AC
03B30:  MOVWF  FF6
03B32:  MOVLW  08
03B34:  MOVWF  FF7
03B36:  MOVLW  00
03B38:  MOVWF  FF8
03B3A:  MOVLW  10
03B3C:  MOVLB  2
03B3E:  MOVWF  x04
03B40:  MOVLB  0
03B42:  CALL   0A46
03B46:  MOVLW  D2
03B48:  MOVWF  FF6
03B4A:  MOVLW  08
03B4C:  MOVWF  FF7
03B4E:  MOVLW  00
03B50:  MOVWF  FF8
03B52:  CALL   0A16
03B56:  MOVLW  20
03B58:  MOVLB  2
03B5A:  MOVWF  x08
03B5C:  MOVLB  0
03B5E:  CALL   09C4
03B62:  MOVLW  DC
03B64:  MOVWF  FF6
03B66:  MOVLW  08
03B68:  MOVWF  FF7
03B6A:  MOVLW  00
03B6C:  MOVWF  FF8
03B6E:  CALL   0A16
03B72:  MOVLW  C1
03B74:  MOVWF  FF6
03B76:  MOVLW  08
03B78:  MOVWF  FF7
03B7A:  MOVLW  00
03B7C:  MOVWF  FF8
03B7E:  MOVLW  0F
03B80:  MOVLB  2
03B82:  MOVWF  x04
03B84:  MOVLB  0
03B86:  CALL   0A46
.................... 
....................     io_init();
03B8A:  GOTO   0AC2
....................     setup_uart_to_boss();
03B8E:  GOTO   0B1A
....................     setup_timer();
03B92:  GOTO   0B44
....................     misf_init();
03B96:  GOTO   11D2
.................... 
....................     piclog_make(0x00, 0x00); // PICLOG_STARTUP
03B9A:  MOVLB  1
03B9C:  CLRF   x64
03B9E:  CLRF   x65
03BA0:  MOVLB  0
03BA2:  CALL   1F8A
.................... 
....................     int1 is_finished = FALSE;
03BA6:  MOVLB  1
03BA8:  BCF    x4F.0
....................     fprintf(PC,"____CIGS PIC Start Operation_____\r\n\r\n");
03BAA:  MOVLW  E6
03BAC:  MOVWF  FF6
03BAE:  MOVLW  08
03BB0:  MOVWF  FF7
03BB2:  MOVLW  00
03BB4:  MOVWF  FF8
03BB6:  MOVLB  0
03BB8:  CALL   0A16
.................... 
....................     fprintf(PC,"waiting for BOSS PIC command");
03BBC:  MOVLW  0C
03BBE:  MOVWF  FF6
03BC0:  MOVLW  09
03BC2:  MOVWF  FF7
03BC4:  MOVLW  00
03BC6:  MOVWF  FF8
03BC8:  CALL   0A16
.................... 
....................     //Start loop
....................     while(!is_finished)
03BCC:  MOVLB  1
03BCE:  BTFSS  x4F.0
03BD0:  BRA    3BD8
03BD2:  MOVLB  0
03BD4:  GOTO   3C9C
03BD8:  MOVLB  0
....................     {
....................         // handle from boss commands
....................         if(boss_receive_buffer_size > 0)
03BDA:  MOVF   3F,F
03BDC:  BTFSC  FD8.2
03BDE:  GOTO   3C58
....................         {
....................             volatile Command recieve_cmd = make_receive_command(boss_receive_buffer, boss_receive_buffer_size);
03BE2:  MOVLB  1
03BE4:  CLRF   x63
03BE6:  MOVLW  1F
03BE8:  MOVWF  x62
03BEA:  MOVFF  3F,164
03BEE:  MOVLB  0
03BF0:  GOTO   2436
03BF4:  MOVFF  02,03
03BF8:  MOVF   01,W
03BFA:  MOVWF  FE1
03BFC:  MOVFF  03,FE2
03C00:  MOVLW  01
03C02:  MOVWF  FEA
03C04:  MOVLW  50
03C06:  MOVWF  FE9
03C08:  MOVLW  0C
03C0A:  MOVWF  01
03C0C:  MOVFF  FE6,FEE
03C10:  DECFSZ 01,F
03C12:  GOTO   3C0C
.................... 
....................             // гҒ“гҒ“гҒ§гғҗгғғгғ•гӮЎгҒҢгӮҜгғӘгӮў(гӮөгӮӨгӮә0)гҒ«гҒӘгӮӢ
....................             clear_receive_signal(boss_receive_buffer, &boss_receive_buffer_size);
03C16:  MOVLB  1
03C18:  CLRF   x5D
03C1A:  MOVLW  1F
03C1C:  MOVWF  x5C
03C1E:  CLRF   x5F
03C20:  MOVLW  3F
03C22:  MOVWF  x5E
03C24:  MOVLB  0
03C26:  GOTO   2630
.................... 
....................             if(recieve_cmd.is_exist)
03C2A:  MOVLB  1
03C2C:  BTFSC  x52.0
03C2E:  BRA    3C36
03C30:  MOVLB  0
03C32:  GOTO   3C58
03C36:  MOVLB  0
....................             {
....................                 // еӨүжӣҙ: еҸӨгҒ„й–ўж•°гҒ§гҒҜгҒӘгҒҸгҖҒж–°гҒ—гҒ„гғҮгӮЈгӮ№гғ‘гғғгғҒгғЈгҒ«Commandж§ӢйҖ дҪ“гӮ’жёЎгҒҷ
....................                 execute_mission_command((Command*)&recieve_cmd);
03C38:  MOVLW  01
03C3A:  MOVLB  1
03C3C:  MOVWF  x5D
03C3E:  MOVLW  50
03C40:  MOVWF  x5C
03C42:  MOVLB  0
03C44:  GOTO   37F2
.................... 
....................                 fprintf(PC,"\r\nwaiting for BOSS PIC command");
03C48:  MOVLW  2A
03C4A:  MOVWF  FF6
03C4C:  MOVLW  09
03C4E:  MOVWF  FF7
03C50:  MOVLW  00
03C52:  MOVWF  FF8
03C54:  CALL   0A16
....................             }
....................         }
.................... 
....................         // check `is break while loop`
....................         if(is_finished == TRUE)
03C58:  MOVLB  1
03C5A:  BTFSC  x4F.0
03C5C:  BRA    3C64
03C5E:  MOVLB  0
03C60:  GOTO   3C6A
03C64:  MOVLB  0
....................             break;
03C66:  GOTO   3C9C
.................... 
....................         delay_ms(400);
03C6A:  MOVLW  02
03C6C:  MOVLB  1
03C6E:  MOVWF  x5C
03C70:  MOVLB  0
03C72:  MOVLW  C8
03C74:  MOVLB  2
03C76:  MOVWF  x1C
03C78:  MOVLB  0
03C7A:  CALL   0996
03C7E:  MOVLB  1
03C80:  DECFSZ x5C,F
03C82:  BRA    3C88
03C84:  BRA    3C8C
03C86:  MOVLB  0
03C88:  MOVLB  0
03C8A:  BRA    3C72
....................         fprintf(PC, ".");
03C8C:  MOVLW  2E
03C8E:  MOVLB  2
03C90:  MOVWF  x08
03C92:  MOVLB  0
03C94:  CALL   09C4
03C98:  GOTO   3BCC
....................     }
.................... 
....................     fprintf(PC, "\r\n\r\n======\r\n\r\nFinished process.\r\nWait for BOSS PIC turn off me");
03C9C:  MOVLW  4A
03C9E:  MOVWF  FF6
03CA0:  MOVLW  09
03CA2:  MOVWF  FF7
03CA4:  MOVLW  00
03CA6:  MOVWF  FF8
03CA8:  CALL   0A16
.................... 
....................     while (TRUE)
....................     {
....................         fprintf(PC, ".");
03CAC:  MOVLW  2E
03CAE:  MOVLB  2
03CB0:  MOVWF  x08
03CB2:  MOVLB  0
03CB4:  CALL   09C4
....................         delay_ms(1000);
03CB8:  MOVLW  04
03CBA:  MOVLB  1
03CBC:  MOVWF  x5C
03CBE:  MOVLB  0
03CC0:  MOVLW  FA
03CC2:  MOVLB  2
03CC4:  MOVWF  x1C
03CC6:  MOVLB  0
03CC8:  CALL   0996
03CCC:  MOVLB  1
03CCE:  DECFSZ x5C,F
03CD0:  BRA    3CD6
03CD2:  BRA    3CDA
03CD4:  MOVLB  0
03CD6:  MOVLB  0
03CD8:  BRA    3CC0
03CDA:  MOVLB  0
03CDC:  GOTO   3CAC
....................     }
.................... 
....................     fprintf(PC, "End main\r\n");
03CE0:  MOVLW  8A
03CE2:  MOVWF  FF6
03CE4:  MOVLW  09
03CE6:  MOVWF  FF7
03CE8:  MOVLW  00
03CEA:  MOVWF  FF8
03CEC:  CALL   0A16
.................... }
03CF0:  SLEEP 

Configuration Fuses:
   Word  1: F6A0   STVREN NOXINST NODEBUG NOBROWNOUT BORV18 NOPROTECT
   Word  2: FF82   PR SOSC_DIG NOCLOCKOUT IESO NOPLL
   Word  3: F032   HS
   Word  4: F7FF   WPFP WPDIS WPEND NOWPCFG
   Word  5: FF03   T5G_IS_T5G CINA_DEFAULT IOL1WAY LS48MHZ MSSP2MSK7 MSSPMSK7
   Word  6: FCFF   WDTWIN_25% WDTCLK_FRC WDT32768 NOWDT WINDIS WPRES128
   Word  7: F01D   NOVREGSLEEP VBATBOR DSBOR DS_SW
   Word  8: F3F8   DSWDT_25DAYS NODSWDT DSWDTOSC_INT
